
atmega128.elf:     file format elf32-avr

Sections:
Idx Name          Size      VMA       LMA       File off  Algn
  0 .data         000000a6  00800100  00008812  000088a6  2**0
                  CONTENTS, ALLOC, LOAD, DATA
  1 .text         00008812  00000000  00000000  00000094  2**1
                  CONTENTS, ALLOC, LOAD, READONLY, CODE
  2 .bss          000001e1  008001a6  008001a6  0000894c  2**0
                  ALLOC
  3 .debug_aranges 00000180  00000000  00000000  0000894c  2**0
                  CONTENTS, READONLY, DEBUGGING
  4 .debug_pubnames 0000053f  00000000  00000000  00008acc  2**0
                  CONTENTS, READONLY, DEBUGGING
  5 .debug_info   000028b4  00000000  00000000  0000900b  2**0
                  CONTENTS, READONLY, DEBUGGING
  6 .debug_abbrev 00000f42  00000000  00000000  0000b8bf  2**0
                  CONTENTS, READONLY, DEBUGGING
  7 .debug_line   00001e98  00000000  00000000  0000c801  2**0
                  CONTENTS, READONLY, DEBUGGING
  8 .debug_frame  00000670  00000000  00000000  0000e69c  2**2
                  CONTENTS, READONLY, DEBUGGING
  9 .debug_str    00000c8d  00000000  00000000  0000ed0c  2**0
                  CONTENTS, READONLY, DEBUGGING
 10 .debug_loc    0000153f  00000000  00000000  0000f999  2**0
                  CONTENTS, READONLY, DEBUGGING

Disassembly of section .text:

00000000 <__vectors>:
       0:	0c 94 4f 36 	jmp	0x6c9e	; 0x6c9e <__ctors_end>
       4:	0c 94 6e 36 	jmp	0x6cdc	; 0x6cdc <__bad_interrupt>
       8:	0c 94 6e 36 	jmp	0x6cdc	; 0x6cdc <__bad_interrupt>
       c:	0c 94 6e 36 	jmp	0x6cdc	; 0x6cdc <__bad_interrupt>
      10:	0c 94 6e 36 	jmp	0x6cdc	; 0x6cdc <__bad_interrupt>
      14:	0c 94 52 37 	jmp	0x6ea4	; 0x6ea4 <__vector_5>
      18:	0c 94 6e 36 	jmp	0x6cdc	; 0x6cdc <__bad_interrupt>
      1c:	0c 94 6e 36 	jmp	0x6cdc	; 0x6cdc <__bad_interrupt>
      20:	0c 94 6e 36 	jmp	0x6cdc	; 0x6cdc <__bad_interrupt>
      24:	0c 94 e7 36 	jmp	0x6dce	; 0x6dce <__vector_9>
      28:	0c 94 6e 36 	jmp	0x6cdc	; 0x6cdc <__bad_interrupt>
      2c:	0c 94 6e 36 	jmp	0x6cdc	; 0x6cdc <__bad_interrupt>
      30:	0c 94 6e 36 	jmp	0x6cdc	; 0x6cdc <__bad_interrupt>
      34:	0c 94 6e 36 	jmp	0x6cdc	; 0x6cdc <__bad_interrupt>
      38:	0c 94 6e 36 	jmp	0x6cdc	; 0x6cdc <__bad_interrupt>
      3c:	0c 94 52 38 	jmp	0x70a4	; 0x70a4 <__vector_15>
      40:	0c 94 6e 36 	jmp	0x6cdc	; 0x6cdc <__bad_interrupt>
      44:	0c 94 6e 36 	jmp	0x6cdc	; 0x6cdc <__bad_interrupt>
      48:	0c 94 6e 36 	jmp	0x6cdc	; 0x6cdc <__bad_interrupt>
      4c:	0c 94 6e 36 	jmp	0x6cdc	; 0x6cdc <__bad_interrupt>
      50:	0c 94 6e 36 	jmp	0x6cdc	; 0x6cdc <__bad_interrupt>
      54:	0c 94 c1 38 	jmp	0x7182	; 0x7182 <__vector_21>
      58:	0c 94 6e 36 	jmp	0x6cdc	; 0x6cdc <__bad_interrupt>
      5c:	0c 94 6e 36 	jmp	0x6cdc	; 0x6cdc <__bad_interrupt>
      60:	0c 94 6e 36 	jmp	0x6cdc	; 0x6cdc <__bad_interrupt>
      64:	0c 94 b8 40 	jmp	0x8170	; 0x8170 <__vector_25>
      68:	0c 94 6e 36 	jmp	0x6cdc	; 0x6cdc <__bad_interrupt>
      6c:	0c 94 6e 36 	jmp	0x6cdc	; 0x6cdc <__bad_interrupt>
      70:	0c 94 6e 36 	jmp	0x6cdc	; 0x6cdc <__bad_interrupt>
      74:	0c 94 6e 36 	jmp	0x6cdc	; 0x6cdc <__bad_interrupt>
      78:	0c 94 cb 37 	jmp	0x6f96	; 0x6f96 <__vector_30>
      7c:	0c 94 6e 36 	jmp	0x6cdc	; 0x6cdc <__bad_interrupt>
      80:	0c 94 6e 36 	jmp	0x6cdc	; 0x6cdc <__bad_interrupt>
      84:	0c 94 6e 36 	jmp	0x6cdc	; 0x6cdc <__bad_interrupt>
      88:	0c 94 6e 36 	jmp	0x6cdc	; 0x6cdc <__bad_interrupt>

0000008c <EngFont>:
	...
      9c:	00 00 00 18 18 18 18 18 18 18 00 18 18 00 00 00     ................
      ac:	00 00 00 3c 3c 00 00 00 00 00 00 00 00 00 00 00     ...<<...........
      bc:	00 00 00 1b 1b 1b 7f 36 36 fe 6c 6c 6c 00 00 00     .......66.lll...
      cc:	00 00 18 3c 7e 78 78 3c 1e 1e 1e 7e 3c 18 00 00     ...<~xx<...~<...
      dc:	00 00 00 33 7b 7e 3c 0c 18 1e 3f 3f 66 00 00 00     ...3{~<...??f...
      ec:	00 00 00 1c 36 36 3c 18 3c 6f 66 66 3f 00 00 00     ....66<.<off?...
      fc:	00 00 00 18 18 00 00 00 00 00 00 00 00 00 00 00     ................
     10c:	00 00 0c 18 18 30 30 30 30 30 30 18 18 0c 00 00     .....000000.....
     11c:	00 00 30 18 18 0c 0c 0c 0c 0c 0c 18 18 30 00 00     ..0..........0..
     12c:	00 00 00 00 00 00 18 18 7e 18 3c 00 00 00 00 00     ........~.<.....
     13c:	00 00 00 00 00 00 18 18 7e 18 18 00 00 00 00 00     ........~.......
	...
     154:	00 00 00 18 18 30 00 00 00 00 00 00 00 00 00 00     .....0..........
     164:	7f 00 00 00 00 00 00 00 00 00 00 00 00 00 00 00     ................
     174:	00 00 00 18 18 00 00 00 00 00 03 03 06 06 0c 0c     ................
     184:	18 18 30 30 60 60 00 00 00 00 00 3e 63 63 63 63     ..00``.....>cccc
     194:	63 63 63 63 3e 00 00 00 00 00 00 0c 1c 0c 0c 0c     cccc>...........
     1a4:	0c 0c 0c 0c 0c 00 00 00 00 00 00 3e 63 63 03 06     ...........>cc..
     1b4:	1c 30 60 60 7f 00 00 00 00 00 00 3e 63 63 03 1e     .0``.......>cc..
     1c4:	03 03 63 63 3e 00 00 00 00 00 00 0e 0e 1e 1e 36     ..cc>..........6
     1d4:	36 66 7f 06 06 00 00 00 00 00 00 7f 60 60 60 7e     6f..........```~
     1e4:	63 03 03 63 3e 00 00 00 00 00 00 3e 63 60 60 7e     c..c>......>c``~
     1f4:	63 63 63 63 3e 00 00 00 00 00 00 7f 63 63 06 06     cccc>.......cc..
     204:	06 0c 0c 0c 0c 00 00 00 00 00 00 3e 63 63 63 3e     ...........>ccc>
     214:	63 63 63 63 3e 00 00 00 00 00 00 3e 63 63 63 63     cccc>......>cccc
     224:	3f 03 03 63 3e 00 00 00 00 00 00 00 00 1c 00 00     ?..c>...........
     234:	00 00 1c 00 00 00 00 00 00 00 00 00 00 1c 00 00     ................
     244:	00 00 1c 0c 18 00 00 00 00 00 00 00 00 07 0c 38     ...............8
     254:	60 38 0c 07 00 00 00 00 00 00 00 00 00 00 7f 00     `8..............
     264:	00 7f 00 00 00 00 00 00 00 00 00 00 00 70 18 0e     .............p..
     274:	03 0e 18 70 00 00 00 00 00 00 00 1e 33 33 03 06     ...p........33..
     284:	0c 0c 00 0c 0c 00 00 00 00 00 00 1e 33 6f 7b 7b     ............3o{{
     294:	7b 7b 7f 60 3e 00 00 00 00 00 00 18 18 18 3c 3c     {{.`>.........<<
     2a4:	3c 3c 66 66 66 00 00 00 00 00 00 7e 63 63 63 7e     <<fff......~ccc~
     2b4:	63 63 63 63 7e 00 00 00 00 00 00 3e 63 63 60 60     cccc~......>cc``
     2c4:	60 60 63 63 3e 00 00 00 00 00 00 7c 66 63 63 63     ``cc>......|fccc
     2d4:	63 63 63 66 7c 00 00 00 00 00 00 7f 60 60 60 7f     cccf|.......```.
     2e4:	60 60 60 60 7f 00 00 00 00 00 00 7f 60 60 60 7e     ````........```~
     2f4:	60 60 60 60 60 00 00 00 00 00 00 3e 63 63 60 60     `````......>cc``
     304:	6f 63 63 67 3f 00 00 00 00 00 00 63 63 63 63 7f     occg?......cccc.
     314:	63 63 63 63 63 00 00 00 00 00 00 18 18 18 18 18     ccccc...........
     324:	18 18 18 18 18 00 00 00 00 00 00 06 06 06 06 06     ................
     334:	06 06 66 66 3c 00 00 00 00 00 00 63 66 6c 78 70     ..ff<......cflxp
     344:	70 78 6c 66 63 00 00 00 00 00 00 60 60 60 60 60     pxlfc......`````
     354:	60 60 60 60 7f 00 00 00 00 00 00 66 66 7e 7e 7e     ````.......ff~~~
     364:	7e 7e 7e 66 66 00 00 00 00 00 00 66 66 76 76 7e     ~~~ff......ffvv~
     374:	7e 6e 6e 66 66 00 00 00 00 00 00 1c 36 63 63 63     ~nnff.......6ccc
     384:	63 63 63 36 1c 00 00 00 00 00 00 7e 63 63 63 63     ccc6.......~cccc
     394:	7e 60 60 60 60 00 00 00 00 00 00 3e 63 63 63 63     ~````......>cccc
     3a4:	63 63 7b 6f 3e 03 00 00 00 00 00 7e 63 63 63 63     cc{o>......~cccc
     3b4:	7e 63 63 63 63 00 00 00 00 00 00 3e 63 63 60 38     ~cccc......>cc`8
     3c4:	0e 03 63 63 3e 00 00 00 00 00 00 7e 18 18 18 18     ..cc>......~....
     3d4:	18 18 18 18 18 00 00 00 00 00 00 63 63 63 63 63     ...........ccccc
     3e4:	63 63 63 63 3e 00 00 00 00 00 00 66 66 66 66 3c     cccc>......ffff<
     3f4:	3c 3c 18 18 18 00 00 00 00 00 00 7e 7e 7e 7e 7e     <<.........~~~~~
     404:	7e 7e 3c 3c 3c 00 00 00 00 00 00 66 66 3c 3c 18     ~~<<<......ff<<.
     414:	18 3c 3c 66 66 00 00 00 00 00 00 66 66 66 66 3c     .<<ff......ffff<
     424:	3c 18 18 18 18 00 00 00 00 00 00 7f 03 06 06 0c     <...............
     434:	18 18 30 60 7f 00 00 00 00 00 1c 18 18 18 18 18     ..0`............
     444:	18 18 18 18 18 1c 00 00 00 00 00 7e 7e 7e ff 7e     ...........~~~.~
     454:	7e 7e 3c 3c 3c 00 00 00 00 00 1c 0c 0c 0c 0c 0c     ~~<<<...........
     464:	0c 0c 0c 0c 0c 1c 00 00 00 00 00 18 3c 66 00 00     ............<f..
	...
     488:	7f 00 00 00 00 00 00 18 0c 00 00 00 00 00 00 00     ................
	...
     4a0:	00 00 3c 66 06 3e 66 66 3f 00 00 00 00 00 00 60     ..<f.>ff?......`
     4b0:	60 60 7c 66 66 66 66 66 7c 00 00 00 00 00 00 00     ``|fffff|.......
     4c0:	00 00 3c 66 60 60 60 66 3c 00 00 00 00 00 00 06     ..<f```f<.......
     4d0:	06 06 3e 66 66 66 66 66 3e 00 00 00 00 00 00 00     ..>fffff>.......
     4e0:	00 00 3c 66 66 7e 60 66 3c 00 00 00 00 00 00 0c     ..<ff~`f<.......
     4f0:	18 18 3c 18 18 18 18 18 18 00 00 00 00 00 00 00     ..<.............
     500:	00 00 3e 66 66 66 3e 06 66 3c 00 00 00 00 00 60     ..>fff>.f<.....`
     510:	60 60 7c 66 66 66 66 66 66 00 00 00 00 00 00 18     ``|ffffff.......
     520:	18 00 18 18 18 18 18 18 18 00 00 00 00 00 00 0c     ................
     530:	0c 00 0c 0c 0c 0c 0c 0c 0c 38 00 00 00 00 00 60     .........8.....`
     540:	60 60 66 6c 78 70 78 6c 66 00 00 00 00 00 00 18     ``flxpxlf.......
     550:	18 18 18 18 18 18 18 18 18 00 00 00 00 00 00 00     ................
     560:	00 00 7c 7e 7e 7e 7e 7e 7e 00 00 00 00 00 00 00     ..|~~~~~~.......
     570:	00 00 7c 66 66 66 66 66 66 00 00 00 00 00 00 00     ..|ffffff.......
     580:	00 00 3c 66 66 66 66 66 3c 00 00 00 00 00 00 00     ..<fffff<.......
     590:	00 00 7c 66 66 66 66 7c 60 60 00 00 00 00 00 00     ..|ffff|``......
     5a0:	00 00 3e 66 66 66 66 3e 06 06 00 00 00 00 00 00     ..>ffff>........
     5b0:	00 00 3e 38 30 30 30 30 30 00 00 00 00 00 00 00     ..>800000.......
     5c0:	00 00 3c 66 60 3c 06 66 3c 00 00 00 00 00 00 00     ..<f`<.f<.......
     5d0:	30 30 7c 30 30 30 30 30 1c 00 00 00 00 00 00 00     00|00000........
     5e0:	00 00 66 66 66 66 66 66 3e 00 00 00 00 00 00 00     ..ffffff>.......
     5f0:	00 00 66 66 66 3c 3c 18 18 00 00 00 00 00 00 00     ..fff<<.........
     600:	00 00 7e 7e 7e 7e 3c 3c 3c 00 00 00 00 00 00 00     ..~~~~<<<.......
     610:	00 00 66 66 3c 18 3c 66 66 00 00 00 00 00 00 00     ..ff<.<ff.......
     620:	00 00 66 66 66 3c 3c 18 18 70 00 00 00 00 00 00     ..fff<<..p......
     630:	00 00 7e 06 0c 18 30 60 7e 00 00 00 00 00 06 0c     ..~...0`~.......
     640:	0c 0c 0c 38 0c 0c 0c 0c 0c 06 00 00 00 00 18 18     ...8............
     650:	18 18 18 18 18 18 18 18 18 18 00 00 00 00 30 18     ..............0.
     660:	18 18 18 0e 18 18 18 18 18 30 00 00 00 00 00 00     .........0......
     670:	00 00 00 3b 6e 00 00 00 00 00 00 00 00 00 00 00     ...;n...........
     680:	7e 66 66 66 66 66 66 66 7e 00 00 00                 ~fffffff~...

0000068c <EngFont_IndexTable>:
	...
     6cc:	00 00 01 00 02 00 03 00 04 00 05 00 06 00 07 00     ................
     6dc:	08 00 09 00 0a 00 0b 00 0c 00 0d 00 0e 00 0f 00     ................
     6ec:	10 00 11 00 12 00 13 00 14 00 15 00 16 00 17 00     ................
     6fc:	18 00 19 00 1a 00 1b 00 1c 00 1d 00 1e 00 1f 00     ................
     70c:	20 00 21 00 22 00 23 00 24 00 25 00 26 00 27 00      .!.".#.$.%.&.'.
     71c:	28 00 29 00 2a 00 2b 00 2c 00 2d 00 2e 00 2f 00     (.).*.+.,.-.../.
     72c:	30 00 31 00 32 00 33 00 34 00 35 00 36 00 37 00     0.1.2.3.4.5.6.7.
     73c:	38 00 39 00 3a 00 3b 00 3c 00 3d 00 3e 00 3f 00     8.9.:.;.<.=.>.?.
     74c:	40 00 41 00 42 00 43 00 44 00 45 00 46 00 47 00     @.A.B.C.D.E.F.G.
     75c:	48 00 49 00 4a 00 4b 00 4c 00 4d 00 4e 00 4f 00     H.I.J.K.L.M.N.O.
     76c:	50 00 51 00 52 00 53 00 54 00 55 00 56 00 57 00     P.Q.R.S.T.U.V.W.
     77c:	58 00 59 00 5a 00 5b 00 5c 00 5d 00 5e 00 5f 00     X.Y.Z.[.\.].^._.

0000078c <KorFont>:
     78c:	00 00 00 00 00 18 3f 18 01 98 01 98 01 98 01 9e     ......?.........
     79c:	03 18 03 18 06 18 0c 18 38 18 00 18 00 00 00 00     ........8.......
     7ac:	00 00 00 00 3f 18 01 98 01 9e 03 18 0e 18 38 18     ....?.........8.
     7bc:	00 18 00 00 1f f0 00 18 00 18 00 18 00 00 00 00     ................
     7cc:	00 00 00 00 3f 18 01 98 01 98 01 9e 03 18 0e 18     ....?...........
     7dc:	38 18 00 18 18 18 18 00 18 00 0f f8 00 00 00 00     8...............
     7ec:	00 00 00 00 3f 18 01 98 01 9e 03 18 0e 18 38 18     ....?.........8.
     7fc:	00 18 00 00 0f f8 18 00 18 00 0f f8 00 00 00 00     ................
     80c:	00 00 00 00 3f 18 01 98 01 9e 03 18 0e 18 38 18     ....?.........8.
     81c:	00 00 1f f0 00 18 0f f0 18 00 0f f8 00 00 00 00     ................
     82c:	00 00 00 00 3f 18 01 98 01 9e 03 18 0e 18 38 18     ....?.........8.
     83c:	00 18 00 00 1f f8 18 18 18 18 1f f8 00 00 00 00     ................
     84c:	00 00 00 00 3f 18 01 98 01 9e 03 18 0e 18 38 18     ....?.........8.
     85c:	00 00 19 b0 19 b0 1f b0 19 f8 0f cc 00 00 00 00     ................
     86c:	00 00 00 00 3f 18 01 98 01 9e 03 18 0e 18 38 18     ....?.........8.
     87c:	00 18 00 00 06 60 06 60 0f f0 39 9c 00 00 00 00     .....`.`..9.....
     88c:	00 00 00 00 3f 18 01 98 01 9e 03 18 0e 18 38 18     ....?.........8.
     89c:	00 18 00 00 0f f0 18 18 18 18 0f f0 00 00 00 00     ................
     8ac:	00 00 00 00 3f 18 01 98 01 9e 03 18 0e 18 38 18     ....?.........8.
     8bc:	00 18 00 00 1f f8 01 80 07 e0 1c 38 00 00 00 00     ...........8....
     8cc:	00 00 00 00 3f 18 01 98 01 9e 03 18 0e 18 38 18     ....?.........8.
     8dc:	00 00 0f f8 18 00 1f f8 18 00 0f f8 00 00 00 00     ................
     8ec:	00 00 00 00 00 6c 1e 6c 03 6c 03 6c 03 6c 03 7c     .....l.l.l.l.l.|
     8fc:	03 6c 06 6c 06 6c 0c 6c 18 6c 00 6c 00 00 00 00     .l.l.l.l.l.l....
     90c:	00 00 00 00 1e 6c 03 6c 03 6c 03 7c 03 6c 06 6c     .....l.l.l.|.l.l
     91c:	1c 0c 00 00 0f f8 00 0c 00 0c 00 0c 00 00 00 00     ................
     92c:	00 00 00 00 1e 6c 03 6c 03 6c 03 7c 03 6c 06 6c     .....l.l.l.|.l.l
     93c:	1c 0c 00 00 07 f8 0c 0c 0c 0c 07 f8 00 00 00 00     ................
     94c:	00 00 00 00 00 18 3f 18 01 98 01 98 01 98 01 f8     ......?.........
     95c:	03 18 03 18 06 18 0c 18 38 18 00 18 00 00 00 00     ........8.......
     96c:	00 00 00 00 1f 8c 00 cc 00 cc 00 fc 01 8c 07 0c     ................
     97c:	1c 0c 00 0c 00 0c 0c 00 0c 00 07 fc 00 00 00 00     ................
     98c:	00 00 00 00 1f 8c 00 cc 00 fc 01 8c 07 0c 1c 0c     ................
     99c:	00 00 0f f8 00 0c 07 f8 0c 00 07 fc 00 00 00 00     ................
     9ac:	00 00 00 00 1f 8c 00 cc 00 cc 01 fc 07 0c 1c 0c     ................
     9bc:	00 0c 00 00 0f fc 0c 0c 0c 0c 0f fc 00 00 00 00     ................
     9cc:	00 00 00 00 1f 8c 00 cc 00 cc 01 fc 07 0c 1c 0c     ................
     9dc:	00 0c 00 00 0c 0c 0f fc 0c 0c 07 f8 00 00 00 00     ................
     9ec:	00 00 00 00 1f 8c 00 cc 00 cc 00 fc 01 8c 07 0c     ................
     9fc:	1c 0c 00 0c 00 c0 00 c0 03 f0 0e 1c 00 00 00 00     ................
     a0c:	00 00 00 00 1f 8c 00 cc 00 cc 01 fc 07 0c 1c 0c     ................
     a1c:	00 00 07 fc 0c 00 0f fc 0c 00 07 fc 00 00 00 00     ................
     a2c:	00 00 00 00 00 6c 1e 6c 03 6c 03 6c 03 ec 03 6c     .....l.l.l.l...l
     a3c:	03 6c 06 6c 06 6c 0c 6c 18 6c 00 6c 00 00 00 00     .l.l.l.l.l.l....
     a4c:	00 00 00 00 1e 6c 03 6c 03 6c 03 ec 03 6c 06 6c     .....l.l.l...l.l
     a5c:	1c 0c 00 00 03 30 03 30 07 f8 1c ce 00 00 00 00     .....0.0........
     a6c:	00 00 00 00 00 0c 1f 8c 00 cc 00 fc 00 cc 00 cc     ................
     a7c:	01 8c 01 fc 03 0c 06 0c 1c 0c 00 0c 00 00 00 00     ................
     a8c:	00 00 00 00 1f 8c 00 fc 00 cc 01 8c 07 7c 1c 0c     .............|..
     a9c:	00 0c 00 00 0f f8 00 0c 00 0c 00 0c 00 00 00 00     ................
     aac:	00 00 00 00 1f 8c 00 fc 00 cc 01 8c 07 7c 1c 0c     .............|..
     abc:	00 0c 00 00 0f 78 01 8c 01 8c 01 8c 00 00 00 00     .....x..........
     acc:	00 00 00 00 1f 8c 00 fc 00 cc 00 cc 01 fc 07 0c     ................
     adc:	1c 0c 00 0c 00 0c 0c 00 0c 00 07 fc 00 00 00 00     ................
     aec:	00 00 00 00 1f 8c 00 fc 00 cc 01 8c 07 7c 1c 0c     .............|..
     afc:	00 00 0f f8 00 0c 07 f8 0c 00 07 fc 00 00 00 00     ................
     b0c:	00 00 00 00 1f 8c 00 fc 00 cc 01 8c 07 7c 1c 0c     .............|..
     b1c:	00 0c 00 00 03 30 03 30 07 f8 1c ce 00 00 00 00     .....0.0........
     b2c:	00 00 00 00 1f 8c 00 fc 00 cc 01 8c 07 7c 1c 0c     .............|..
     b3c:	00 0c 00 00 07 f8 0c 0c 0c 0c 07 f8 00 00 00 00     ................
     b4c:	00 00 00 00 1f 8c 00 fc 00 cc 01 8c 07 7c 1c 0c     .............|..
     b5c:	00 00 07 fc 0c 00 0f fc 0c 00 07 fc 00 00 00 00     ................
     b6c:	00 00 00 00 00 6c 1e 6c 03 6c 03 ec 03 6c 03 6c     .....l.l.l...l.l
     b7c:	03 6c 07 ec 06 6c 0c 6c 18 6c 00 6c 00 00 00 00     .l...l.l.l.l....
     b8c:	00 00 00 00 00 00 1f f0 00 18 00 18 00 18 03 18     ................
     b9c:	03 18 03 18 03 30 03 00 3f fc 00 00 00 00 00 00     .....0..?.......
     bac:	00 00 00 00 1f f0 00 18 03 18 03 30 03 00 3f fc     ...........0..?.
     bbc:	00 00 00 00 1f f0 00 18 00 18 00 18 00 00 00 00     ................
     bcc:	00 00 00 00 1f f0 00 18 00 18 03 18 03 30 03 00     .............0..
     bdc:	3f fc 00 00 00 00 18 00 18 00 0f f8 00 00 00 00     ?...............
     bec:	00 00 00 00 1f f0 00 18 03 18 03 30 03 00 3f fc     ...........0..?.
     bfc:	00 00 00 00 0f f8 18 00 18 00 0f f8 00 00 00 00     ................
     c0c:	00 00 00 00 1f f0 00 18 03 18 03 30 03 00 3f fc     ...........0..?.
     c1c:	00 00 18 18 18 18 1f f8 18 18 0f f0 00 00 00 00     ................
     c2c:	00 00 00 00 1f f0 00 18 03 18 03 30 03 00 3f fc     ...........0..?.
     c3c:	00 00 00 00 01 80 01 80 07 e0 1c 38 00 00 00 00     ...........8....
     c4c:	00 00 00 00 1f f0 00 18 03 18 03 30 03 00 3f fc     ...........0..?.
     c5c:	00 00 00 00 0f f0 18 18 18 18 0f f0 00 00 00 00     ................
     c6c:	00 00 00 00 3f 98 00 d8 00 d8 00 d8 0c d8 0c de     ....?...........
     c7c:	0c d8 0d 98 0c 18 3f f8 00 18 00 18 00 00 00 00     ......?.........
     c8c:	00 00 00 00 3f 98 00 d8 00 d8 0c d8 0d 9e 0c 18     ....?...........
     c9c:	3f f8 00 18 00 18 18 00 18 00 0f f8 00 00 00 00     ?...............
     cac:	00 00 00 00 3f 98 00 d8 0c d8 0d 9e 0c 18 3f f8     ....?.........?.
     cbc:	00 00 1f f0 00 18 0f f0 18 00 0f f8 00 00 00 00     ................
     ccc:	00 00 00 00 3f 98 00 d8 0c d8 0d 9e 0c 18 3f f8     ....?.........?.
     cdc:	00 18 00 18 0f f0 18 18 18 18 0f f0 00 00 00 00     ................
     cec:	00 00 00 00 1f 6c 01 ec 01 ec 0d fc 0f 6c 0c 6c     .....l.......l.l
     cfc:	1f ec 00 6c 00 0c 0c 00 0c 00 07 fc 00 00 00 00     ...l............
     d0c:	00 00 00 00 1f cc 00 6c 00 6c 00 6c 06 6c 06 6c     .......l.l.l.l.l
     d1c:	06 6c 06 cc 06 0c 1f fc 00 0c 00 0c 00 00 00 00     .l..............
     d2c:	00 00 00 00 00 00 1f f0 00 18 00 18 00 18 0c d8     ................
     d3c:	0c d8 0c d8 0c d8 0c c0 3f fc 00 00 00 00 00 00     ........?.......
     d4c:	00 00 00 00 1f f0 00 18 00 18 00 18 00 18 00 30     ...............0
     d5c:	3f fc 01 80 01 80 01 80 01 80 01 80 00 00 00 00     ?...............
     d6c:	00 00 00 00 1f f0 00 18 00 18 00 18 00 30 3f fc     .............0?.
     d7c:	01 80 01 80 1f f0 00 18 00 18 00 18 00 00 00 00     ................
     d8c:	00 00 00 00 1f f0 00 18 00 18 00 18 00 30 3f fc     .............0?.
     d9c:	01 80 01 80 01 80 18 00 18 00 0f f8 00 00 00 00     ................
     dac:	00 00 00 00 1f f0 00 18 00 18 00 30 3f fc 01 80     ...........0?...
     dbc:	01 80 0f f8 18 00 18 00 18 00 0f f8 00 00 00 00     ................
     dcc:	00 00 00 00 1f f0 00 18 00 18 00 30 3f fc 01 80     ...........0?...
     ddc:	01 80 1f f0 00 18 0f f0 18 00 0f f8 00 00 00 00     ................
     dec:	00 00 00 00 1f f0 00 18 00 18 00 30 3f fc 01 80     ...........0?...
     dfc:	01 80 1f f0 01 98 0f 18 18 18 0f 98 00 00 00 00     ................
     e0c:	00 00 00 00 1f f0 00 18 00 18 00 30 3f fc 01 80     ...........0?...
     e1c:	01 80 1f f8 01 d8 0f d8 18 d8 0f f8 00 00 00 00     ................
     e2c:	00 00 00 00 1f f0 00 18 00 18 00 18 00 30 3f fc     .............0?.
     e3c:	01 80 01 80 0f f0 18 18 18 18 0f f0 00 00 00 00     ................
     e4c:	00 00 00 00 1f 98 00 d8 00 d8 00 d8 01 98 3f f8     ..............?.
     e5c:	06 18 06 f8 06 18 18 00 18 00 0f f8 00 00 00 00     ................
     e6c:	00 00 00 00 1f 98 00 d8 00 d8 00 d8 00 d8 01 98     ................
     e7c:	3f f8 06 18 06 18 06 18 0c 18 00 18 00 00 00 00     ?...............
     e8c:	00 00 00 00 1f f0 00 18 00 18 00 18 00 18 00 30     ...............0
     e9c:	3f fc 06 30 06 30 06 30 06 30 06 30 00 00 00 00     ?..0.0.0.0.0....
     eac:	00 00 00 00 1f f0 00 18 00 18 00 18 00 30 3f fc     .............0?.
     ebc:	06 60 06 60 06 60 18 00 18 00 0f f8 00 00 00 00     .`.`.`..........
     ecc:	00 00 00 00 00 00 1f f0 00 18 00 18 00 18 00 18     ................
     edc:	00 18 00 18 00 18 00 30 3f fc 00 00 00 00 00 00     .......0?.......
     eec:	00 00 00 00 1f f0 00 18 00 18 00 18 00 30 3f fc     .............0?.
     efc:	00 00 00 00 1f f0 00 18 00 18 00 18 00 00 00 00     ................
     f0c:	00 00 00 00 1f f0 00 18 00 18 00 18 00 30 3f fc     .............0?.
     f1c:	00 00 00 00 18 00 18 00 18 00 0f f8 00 00 00 00     ................
     f2c:	00 00 00 00 1f f0 00 18 00 18 00 30 3f fc 00 00     ...........0?...
     f3c:	00 00 1f f0 00 18 0f f0 18 00 0f f8 00 00 00 00     ................
     f4c:	00 00 00 00 1f f0 00 18 00 18 00 18 00 30 3f fc     .............0?.
     f5c:	00 00 00 00 1f f8 18 18 18 18 1f f8 00 00 00 00     ................
     f6c:	00 00 00 00 1f f0 00 18 00 18 00 18 00 30 3f fc     .............0?.
     f7c:	00 00 18 18 18 18 1f f8 18 18 0f f0 00 00 00 00     ................
     f8c:	00 00 00 00 1f f0 00 18 00 18 00 18 00 30 3f fc     .............0?.
     f9c:	00 00 00 00 0f f0 18 18 18 18 0f f0 00 00 00 00     ................
     fac:	00 00 00 00 00 18 3f 18 01 98 01 98 01 98 01 98     ......?.........
     fbc:	03 18 03 18 06 18 0c 18 38 18 00 18 00 00 00 00     ........8.......
     fcc:	00 00 00 00 3f 18 01 98 01 98 01 98 03 18 0e 18     ....?...........
     fdc:	38 18 00 18 00 18 18 00 18 00 0f f8 00 00 00 00     8...............
     fec:	00 00 00 00 3f 18 01 98 01 98 03 18 0e 18 38 18     ....?.........8.
     ffc:	00 00 1f f0 00 18 0f f0 18 00 0f f8 00 00 00 00     ................
    100c:	00 00 00 00 3f 18 01 98 01 98 03 18 0e 18 38 18     ....?.........8.
    101c:	00 18 00 00 1f f8 18 18 18 18 1f f8 00 00 00 00     ................
    102c:	00 00 00 00 3f 18 01 98 01 98 03 18 0e 18 38 18     ....?.........8.
    103c:	00 18 00 00 1f f8 06 60 06 60 1f f8 00 00 00 00     .......`.`......
    104c:	00 00 00 00 00 18 3b 98 0c d8 0c d8 0c d8 0c de     ......;.........
    105c:	0c d8 0c d8 19 98 19 98 33 18 00 18 00 00 00 00     ........3.......
    106c:	00 00 00 00 3f 98 0c d8 0c de 0c d8 19 98 33 18     ....?.........3.
    107c:	00 00 1f f0 00 18 0f f0 18 00 0f f8 00 00 00 00     ................
    108c:	00 00 00 00 00 d8 3e d8 1b d8 1b d8 1b d8 1b f8     ......>.........
    109c:	1b d8 1b d8 1b d8 1b d8 36 d8 00 d8 00 00 00 00     ........6.......
    10ac:	00 00 00 00 00 18 3b 98 0c d8 0c d8 0c d8 0c f8     ......;.........
    10bc:	0c d8 0c d8 19 98 19 98 33 18 00 18 00 00 00 00     ........3.......
    10cc:	00 00 00 00 3f 98 0c d8 0c f8 0c d8 19 98 33 18     ....?.........3.
    10dc:	00 18 00 00 1e f0 03 18 03 18 03 18 00 00 00 00     ................
    10ec:	00 00 00 00 3f 98 0c d8 0c f8 0c d8 19 98 33 18     ....?.........3.
    10fc:	00 18 00 18 01 80 01 80 07 e0 1c 38 00 00 00 00     ...........8....
    110c:	00 00 00 00 3f 98 0c d8 0c f8 0c d8 19 98 33 18     ....?.........3.
    111c:	00 18 00 00 0f f0 18 18 18 18 0f f0 00 00 00 00     ................
    112c:	00 00 00 00 00 78 3e 78 1b 78 1b 78 1b 78 1b f8     .....x>x.x.x.x..
    113c:	1b 78 1b 78 1b 78 1b 78 36 78 00 78 00 00 00 00     .x.x.x.x6x.x....
    114c:	00 00 00 00 3f 98 0c f8 0c d8 0c f8 19 98 33 18     ....?.........3.
    115c:	00 18 00 00 06 60 06 60 0f f0 39 9c 00 00 00 00     .....`.`..9.....
    116c:	00 00 00 00 1c f0 06 18 07 98 0d b0 01 80 3f fc     ..............?.
    117c:	00 00 00 00 1f f8 18 18 18 18 1f f8 00 00 00 00     ................
    118c:	00 00 00 00 1c f0 06 18 07 98 0d b0 01 80 3f fc     ..............?.
    119c:	00 00 18 18 18 18 1f f8 18 18 0f f0 00 00 00 00     ................
    11ac:	00 00 00 00 3e d8 1b d8 1b d8 1b d8 1b d8 1f f8     ....>...........
    11bc:	3f d8 0c d8 0d d8 3f d8 00 d8 00 d8 00 00 00 00     ?.....?.........
    11cc:	00 00 00 00 1e f0 03 18 03 18 03 18 03 18 06 30     ...............0
    11dc:	3f fc 01 80 01 80 01 80 01 80 01 80 00 00 00 00     ?...............
    11ec:	00 00 00 00 1e f0 03 18 03 18 03 18 06 30 3f fc     .............0?.
    11fc:	01 80 01 80 1f f8 18 18 18 18 1f f8 00 00 00 00     ................
    120c:	00 00 00 00 1e f0 03 18 03 18 03 18 06 30 3f fc     .............0?.
    121c:	01 80 01 80 00 00 01 80 07 e0 1c 38 00 00 00 00     ...........8....
    122c:	00 00 00 00 3b 98 0c d8 0c d8 0c d8 0c d8 19 98     ....;...........
    123c:	3f f8 06 18 06 18 06 18 0c 18 00 18 00 00 00 00     ?...............
    124c:	00 00 00 00 3b 98 0c d8 0c d8 0c d8 19 98 3f f8     ....;.........?.
    125c:	06 18 06 18 06 18 18 00 18 00 0f f8 00 00 00 00     ................
    126c:	00 00 00 00 3b 98 0c d8 0c d8 19 98 3f f8 06 18     ....;.......?...
    127c:	06 18 1f f0 00 18 0f f0 18 00 0f f8 00 00 00 00     ................
    128c:	00 00 00 00 1e f0 03 18 03 18 03 18 06 30 3f fc     .............0?.
    129c:	00 00 00 00 18 00 18 00 18 00 0f f8 00 00 00 00     ................
    12ac:	00 00 00 00 1e f0 03 18 03 18 03 18 06 30 3f fc     .............0?.
    12bc:	00 00 00 60 1b fc 18 f0 19 98 0f f0 00 00 00 00     ...`............
    12cc:	00 00 00 00 1e f0 03 18 03 18 06 30 3f fc 00 00     ...........0?...
    12dc:	00 00 1f f0 00 18 0f f0 18 00 0f f8 00 00 00 00     ................
    12ec:	00 00 00 00 1e f0 03 18 03 18 03 18 06 30 3f fc     .............0?.
    12fc:	00 00 00 00 1f f8 18 18 18 18 1f f8 00 00 00 00     ................
    130c:	00 00 00 00 1e f0 03 18 03 18 06 30 3f fc 00 00     ...........0?...
    131c:	00 00 0f f8 18 00 1f f8 18 00 0f f8 00 00 00 00     ................
    132c:	00 00 00 00 00 18 3b 98 0c d8 0c d8 0c d8 0c d8     ......;.........
    133c:	0c d8 0c d8 19 98 19 98 33 18 00 18 00 00 00 00     ........3.......
    134c:	00 00 00 00 3f 98 0c d8 0c d8 0c d8 19 98 33 18     ....?.........3.
    135c:	00 18 00 00 1f f8 18 18 18 18 1f f8 00 00 00 00     ................
    136c:	00 00 00 00 00 18 30 18 30 18 30 18 30 18 30 1e     ......0.0.0.0.0.
    137c:	30 18 30 18 30 18 1f f8 00 18 00 18 00 00 00 00     0.0.0...........
    138c:	00 00 00 00 30 18 30 18 30 1e 30 18 30 18 1f f8     ....0.0.0.0.0...
    139c:	00 18 00 00 1f f0 00 18 00 18 00 18 00 00 00 00     ................
    13ac:	00 00 00 00 30 18 30 18 30 18 30 1e 30 18 1f f8     ....0.0.0.0.0...
    13bc:	00 18 00 18 00 18 18 00 18 00 0f f8 00 00 00 00     ................
    13cc:	00 00 00 00 30 18 30 18 30 1e 30 18 1f f8 00 18     ....0.0.0.0.....
    13dc:	00 00 1f f0 00 18 0f f0 18 00 0f f8 00 00 00 00     ................
    13ec:	00 00 00 00 30 18 30 18 30 1e 30 18 30 18 1f f8     ....0.0.0.0.0...
    13fc:	00 18 00 00 1f f8 18 18 18 18 1f f8 00 00 00 00     ................
    140c:	00 00 00 00 30 18 30 18 30 1e 30 18 30 18 1f f8     ....0.0.0.0.0...
    141c:	00 18 00 00 06 60 06 60 0f f0 39 9c 00 00 00 00     .....`.`..9.....
    142c:	00 00 00 00 30 18 30 18 30 1e 30 18 30 18 1f f8     ....0.0.0.0.0...
    143c:	00 18 00 00 0f f0 18 18 18 18 0f f0 00 00 00 00     ................
    144c:	00 00 00 00 30 18 30 18 30 1e 30 18 30 18 1f f8     ....0.0.0.0.0...
    145c:	00 18 00 00 1f f8 01 80 07 e0 1c 38 00 00 00 00     ...........8....
    146c:	00 00 00 00 00 d8 30 d8 30 d8 30 d8 30 d8 30 f8     ......0.0.0.0.0.
    147c:	30 d8 30 d8 30 d8 1f d8 00 d8 00 d8 00 00 00 00     0.0.0...........
    148c:	00 00 00 00 30 d8 30 d8 30 d8 30 d8 30 f8 1f d8     ....0.0.0.0.0...
    149c:	00 d8 00 d8 18 18 18 00 18 00 0f f8 00 00 00 00     ................
    14ac:	00 00 00 00 30 d8 30 d8 30 d8 30 f8 30 d8 1f d8     ....0.0.0.0.0...
    14bc:	00 00 1f f0 00 18 0f f0 18 00 0f f8 00 00 00 00     ................
    14cc:	00 00 00 00 30 d8 30 d8 30 d8 30 f8 30 d8 1f d8     ....0.0.0.0.0...
    14dc:	00 18 00 00 1f f8 18 18 18 18 1f f8 00 00 00 00     ................
    14ec:	00 00 00 00 30 d8 30 d8 30 d8 30 f8 30 d8 1f d8     ....0.0.0.0.0...
    14fc:	00 18 00 00 06 60 06 60 0f f0 39 9c 00 00 00 00     .....`.`..9.....
    150c:	00 00 00 00 30 d8 30 d8 30 d8 30 f8 30 d8 1f d8     ....0.0.0.0.0...
    151c:	00 18 00 00 0f f0 18 18 18 18 0f f0 00 00 00 00     ................
    152c:	00 00 00 00 00 18 30 18 30 18 30 1e 30 18 30 18     ......0.0.0.0.0.
    153c:	30 18 30 1e 30 18 1f f8 00 18 00 18 00 00 00 00     0.0.0...........
    154c:	00 00 00 00 00 18 30 18 30 18 30 18 31 f8 30 18     ......0.0.0.1.0.
    155c:	30 18 30 18 30 18 1f f8 00 18 00 18 00 00 00 00     0.0.0...........
    156c:	00 00 00 00 30 18 31 f8 30 18 30 18 30 18 1f f8     ....0.1.0.0.0...
    157c:	00 00 1f f0 00 18 0f f0 18 00 0f f8 00 00 00 00     ................
    158c:	00 00 00 00 30 18 31 f8 30 18 30 18 30 18 1f f8     ....0.1.0.0.0...
    159c:	00 00 1f d8 01 d8 0f f8 18 d8 0f f8 00 00 00 00     ................
    15ac:	00 00 00 00 30 18 30 18 31 f8 30 18 30 18 1f f8     ....0.0.1.0.0...
    15bc:	00 18 00 00 1f f8 18 18 18 18 1f f8 00 00 00 00     ................
    15cc:	00 00 00 00 30 18 31 f8 30 18 30 18 30 18 1f f8     ....0.1.0.0.0...
    15dc:	00 18 01 80 0f f8 03 60 06 30 03 e0 00 00 00 00     .......`.0......
    15ec:	00 00 00 00 00 d8 30 d8 30 d8 30 d8 33 d8 30 d8     ......0.0.0.3.0.
    15fc:	30 d8 30 d8 30 d8 1f d8 00 d8 00 d8 00 00 00 00     0.0.0...........
    160c:	00 00 00 00 30 d8 30 d8 33 d8 30 d8 30 d8 1f d8     ....0.0.3.0.0...
    161c:	00 18 00 18 01 80 01 80 07 e0 1c 38 00 00 00 00     ...........8....
    162c:	00 00 00 00 30 18 30 f8 30 18 30 18 30 f8 30 18     ....0.0.0.0.0.0.
    163c:	1f d8 00 18 00 18 18 00 18 00 0f f8 00 00 00 00     ................
    164c:	00 00 00 00 30 18 30 f8 30 18 30 f8 30 18 1f f8     ....0.0.0.0.0...
    165c:	00 18 00 00 1f f8 18 18 18 18 1f f8 00 00 00 00     ................
    166c:	00 00 00 00 00 00 18 00 18 00 18 00 18 00 0f f8     ................
    167c:	01 80 01 80 01 80 01 80 3f fc 00 00 00 00 00 00     ........?.......
    168c:	00 00 00 00 18 00 18 00 18 00 0f f8 01 80 01 80     ................
    169c:	3f fc 00 00 00 00 18 00 18 00 0f f8 00 00 00 00     ?...............
    16ac:	00 00 00 00 18 00 18 00 0f f8 01 80 01 80 3f fc     ..............?.
    16bc:	00 00 00 00 1f f8 18 18 18 18 1f f8 00 00 00 00     ................
    16cc:	00 00 00 00 18 00 18 00 0f f8 01 80 01 80 3f fc     ..............?.
    16dc:	00 00 00 00 0f f0 18 18 18 18 0f f0 00 00 00 00     ................
    16ec:	00 00 00 00 18 00 18 00 0f f8 01 80 01 80 3f fc     ..............?.
    16fc:	00 00 00 00 1f f8 06 60 06 60 1f f8 00 00 00 00     .......`.`......
    170c:	00 00 00 00 18 00 18 00 0f f8 01 80 3f fc 00 00     ............?...
    171c:	03 c0 00 00 1f f8 06 60 0c 30 07 e0 00 00 00 00     .......`.0......
    172c:	00 00 00 00 30 18 30 18 30 18 1f de 06 18 06 18     ....0.0.0.......
    173c:	3f f8 00 00 06 60 06 60 0f f0 39 9c 00 00 00 00     ?....`.`..9.....
    174c:	00 00 00 00 30 18 30 18 30 18 30 18 1f d8 00 18     ....0.0.0.0.....
    175c:	06 18 06 18 06 18 3f f8 00 18 00 18 00 00 00 00     ......?.........
    176c:	00 00 00 00 18 00 18 00 18 00 0f f8 00 00 00 00     ................
    177c:	3f fc 01 80 01 80 01 80 01 80 01 80 00 00 00 00     ?...............
    178c:	00 00 00 00 18 00 18 00 0f f8 00 00 00 00 3f fc     ..............?.
    179c:	01 80 01 80 19 80 18 00 18 00 0f f8 00 00 00 00     ................
    17ac:	00 00 00 00 30 18 30 18 30 18 1f d8 00 18 00 18     ....0.0.0.......
    17bc:	3f f8 06 18 06 18 06 18 0c 18 00 18 00 00 00 00     ?...............
    17cc:	00 00 00 00 18 00 18 00 18 00 0f f8 00 00 00 00     ................
    17dc:	3f fc 06 30 06 30 06 30 06 30 06 30 00 00 00 00     ?..0.0.0.0.0....
    17ec:	00 00 00 00 18 00 18 00 0f f8 00 00 00 00 3f fc     ..............?.
    17fc:	06 60 06 60 1f f8 18 18 18 18 1f f8 00 00 00 00     .`.`............
    180c:	00 00 00 00 00 00 18 00 18 00 18 00 18 00 0f f8     ................
	...
    1824:	3f fc 00 00 00 00 00 00 00 00 00 00 18 00 18 00     ?...............
    1834:	18 00 0f f8 00 00 00 00 3f fc 00 00 18 00 18 00     ........?.......
    1844:	18 00 0f f8 00 00 00 00 00 00 00 00 18 00 18 00     ................
    1854:	18 00 0f f8 00 00 3f fc 00 00 1f f0 00 18 0f f0     ......?.........
    1864:	18 00 0f f8 00 00 00 00 00 00 00 00 18 00 18 00     ................
    1874:	0f f8 00 00 00 00 3f fc 00 00 00 00 0f f0 18 18     ......?.........
    1884:	18 18 0f f0 00 00 00 00 00 00 00 00 00 18 30 18     ..............0.
    1894:	30 18 30 18 30 18 30 18 30 18 30 18 30 18 1f f8     0.0.0.0.0.0.0...
    18a4:	00 18 00 18 00 00 00 00 00 00 00 00 30 18 30 18     ............0.0.
    18b4:	30 18 30 18 30 18 1f f8 00 18 00 18 18 18 18 00     0.0.0...........
    18c4:	18 00 0f f8 00 00 00 00 00 00 00 00 30 18 30 18     ............0.0.
    18d4:	30 18 30 18 30 18 1f f8 00 00 1f f0 00 18 0f f0     0.0.0...........
    18e4:	18 00 0f f8 00 00 00 00 00 00 00 00 30 18 30 18     ............0.0.
    18f4:	30 18 30 18 30 18 1f f8 00 18 00 18 01 80 01 80     0.0.0...........
    1904:	07 e0 1c 38 00 00 00 00 00 00 00 00 30 18 30 18     ...8........0.0.
    1914:	30 18 30 18 30 18 1f f8 00 18 00 00 0f f0 18 18     0.0.0...........
    1924:	18 18 0f f0 00 00 00 00 00 00 00 00 00 18 1f d8     ................
    1934:	30 18 30 18 30 18 30 1e 30 18 30 18 30 18 30 18     0.0.0.0.0.0.0.0.
    1944:	1f f8 00 18 00 00 00 00 00 00 00 00 1f d8 30 18     ..............0.
    1954:	30 18 30 1e 30 18 1f f8 00 18 00 18 00 18 18 00     0.0.0...........
    1964:	18 00 0f f8 00 00 00 00 00 00 00 00 1f d8 30 18     ..............0.
    1974:	30 1e 30 18 30 18 1f f8 00 18 00 00 0f f8 18 00     0.0.0...........
    1984:	18 00 0f f8 00 00 00 00 00 00 00 00 1f d8 30 18     ..............0.
    1994:	30 1e 30 18 1f f8 00 18 00 00 1f f0 00 18 0f f0     0.0.............
    19a4:	18 00 0f f8 00 00 00 00 00 00 00 00 1f d8 30 18     ..............0.
    19b4:	30 1e 30 18 1f f8 00 18 00 00 1f f0 01 98 0f 18     0.0.............
    19c4:	18 18 0f 98 00 00 00 00 00 00 00 00 1f d8 30 18     ..............0.
    19d4:	30 1e 30 18 30 18 1f f8 00 18 00 00 1f f8 18 18     0.0.0...........
    19e4:	18 18 1f f8 00 00 00 00 00 00 00 00 1f d8 30 18     ..............0.
    19f4:	30 1e 30 18 30 18 1f f8 00 00 18 18 18 18 1f f8     0.0.0...........
    1a04:	18 18 0f f0 00 00 00 00 00 00 00 00 1f d8 30 18     ..............0.
    1a14:	30 1e 30 18 30 18 1f f8 00 18 00 00 0f f0 18 18     0.0.0...........
    1a24:	18 18 0f f0 00 00 00 00 00 00 00 00 00 d8 1e d8     ................
    1a34:	30 d8 30 d8 30 d8 30 f8 30 d8 30 d8 30 d8 30 d8     0.0.0.0.0.0.0.0.
    1a44:	1f d8 00 d8 00 00 00 00 00 00 00 00 00 18 1f 98     ................
    1a54:	30 18 30 18 30 18 31 f8 30 18 30 18 30 18 30 18     0.0.0.1.0.0.0.0.
    1a64:	1f d8 00 18 00 00 00 00 00 00 00 00 1f 98 30 18     ..............0.
    1a74:	30 18 30 f8 30 18 30 18 1f d8 00 18 00 18 18 00     0.0.0.0.........
    1a84:	18 00 0f f8 00 00 00 00 00 00 00 00 1f 98 30 18     ..............0.
    1a94:	30 f8 30 18 30 18 1f d8 00 00 1f f0 00 18 0f f0     0.0.0...........
    1aa4:	18 00 0f f8 00 00 00 00 00 00 00 00 1f 98 30 18     ..............0.
    1ab4:	30 f8 30 18 30 18 1f d8 00 00 1f d8 01 d8 0f f8     0.0.0...........
    1ac4:	18 d8 0f f8 00 00 00 00 00 00 00 00 1f 98 30 18     ..............0.
    1ad4:	30 f8 30 18 30 18 1f d8 00 18 00 18 01 80 01 80     0.0.0...........
    1ae4:	07 e0 1c 38 00 00 00 00 00 00 00 00 00 d8 1e d8     ...8............
    1af4:	30 d8 30 d8 30 d8 37 d8 30 d8 30 d8 30 d8 30 d8     0.0.0.7.0.0.0.0.
    1b04:	1f d8 00 d8 00 00 00 00 00 00 00 00 1e d8 30 d8     ..............0.
    1b14:	33 d8 30 d8 30 d8 1f d8 00 00 1f f0 00 18 0f f0     3.0.0...........
    1b24:	18 00 0f f8 00 00 00 00 00 00 00 00 00 00 0f f8     ................
    1b34:	18 00 18 00 18 00 18 00 0f f8 01 80 01 80 01 80     ................
    1b44:	3f fc 00 00 00 00 00 00 00 00 00 00 0f f8 18 00     ?...............
    1b54:	18 00 0f f8 01 80 01 80 3f fc 00 00 1f f0 00 18     ........?.......
    1b64:	00 18 00 18 00 00 00 00 00 00 00 00 0f f8 18 00     ................
    1b74:	18 00 0f f8 01 80 01 80 3f fc 00 00 18 00 18 00     ........?.......
    1b84:	18 00 0f f8 00 00 00 00 00 00 00 00 0f f8 18 00     ................
    1b94:	18 00 0f f8 01 80 3f fc 00 00 1f f0 00 18 0f f0     ......?.........
    1ba4:	18 00 0f f8 00 00 00 00 00 00 00 00 0f f8 18 00     ................
    1bb4:	18 00 0f f8 01 80 3f fc 00 00 18 18 18 18 1f f8     ......?.........
    1bc4:	18 18 0f f0 00 00 00 00 00 00 00 00 0f f8 18 00     ................
    1bd4:	18 00 0f f8 01 80 01 80 3f fc 00 00 0f f0 18 18     ........?.......
    1be4:	18 18 0f f0 00 00 00 00 00 00 00 00 1f d8 30 d8     ..............0.
    1bf4:	30 d8 1f f8 0c d8 0c d8 3f d8 00 18 06 60 06 60     0.......?....`.`
    1c04:	0f f0 39 9c 00 00 00 00 00 00 00 00 1f d8 30 18     ..9...........0.
    1c14:	30 18 30 18 30 18 1f d8 06 18 06 18 06 18 3f f8     0.0.0.........?.
    1c24:	00 18 00 18 00 00 00 00 00 00 00 00 1f d8 30 18     ..............0.
    1c34:	30 18 1f d8 06 18 06 18 3f f8 00 18 18 18 18 00     0.......?.......
    1c44:	18 00 0f f8 00 00 00 00 00 00 00 00 1f d8 30 18     ..............0.
    1c54:	30 18 1f d8 06 18 3f f8 00 00 1f f0 00 18 0f f0     0.....?.........
    1c64:	18 00 0f f8 00 00 00 00 00 00 00 00 1f d8 30 18     ..............0.
    1c74:	30 18 1f d8 06 18 06 18 3f f8 00 00 1f f8 18 18     0.......?.......
    1c84:	18 18 1f f8 00 00 00 00 00 00 00 00 0f f8 18 00     ................
    1c94:	18 00 18 00 0f f8 00 00 00 00 3f fc 01 80 01 80     ..........?.....
    1ca4:	01 80 01 80 00 00 00 00 00 00 00 00 0f f8 18 00     ................
    1cb4:	18 00 0f f8 00 00 3f fc 01 80 01 80 1f f0 00 18     ......?.........
    1cc4:	00 18 00 18 00 00 00 00 00 00 00 00 0f f8 18 00     ................
    1cd4:	18 00 0f f8 00 00 00 00 3f fc 01 80 01 80 19 80     ........?.......
    1ce4:	18 00 0f f8 00 00 00 00 00 00 00 00 0f f8 18 00     ................
    1cf4:	18 00 0f f8 00 00 3f fc 01 80 1f f0 00 18 0f f0     ......?.........
    1d04:	18 00 0f f8 00 00 00 00 00 00 00 00 1f d8 30 18     ..............0.
    1d14:	30 18 30 18 1f d8 00 18 00 18 3f f8 06 18 06 18     0.0.......?.....
    1d24:	0c 18 00 18 00 00 00 00 00 00 00 00 1f d8 30 18     ..............0.
    1d34:	30 18 1f d8 00 18 3f f8 06 18 06 18 01 80 01 80     0.....?.........
    1d44:	07 e0 1c 38 00 00 00 00 00 00 00 00 0f f8 18 00     ...8............
    1d54:	18 00 18 00 0f f8 00 00 00 00 3f fc 06 60 06 60     ..........?..`.`
    1d64:	06 60 06 60 00 00 00 00 00 00 00 00 00 00 0f f8     .`.`............
    1d74:	18 00 18 00 18 00 18 00 0f f8 00 00 00 00 00 00     ................
    1d84:	3f fc 00 00 00 00 00 00 00 00 00 00 0f f8 18 00     ?...............
    1d94:	18 00 0f f8 00 00 3f fc 00 00 00 00 1f f0 00 18     ......?.........
    1da4:	00 18 00 18 00 00 00 00 00 00 00 00 0f f8 18 00     ................
    1db4:	18 00 0f f8 00 00 00 00 3f fc 00 00 18 00 18 00     ........?.......
    1dc4:	18 00 0f f8 00 00 00 00 00 00 00 00 0f f8 18 00     ................
    1dd4:	18 00 0f f8 00 00 3f fc 00 00 00 00 0f f8 18 00     ......?.........
    1de4:	18 00 0f f8 00 00 00 00 00 00 00 00 0f f8 18 00     ................
    1df4:	18 00 0f f8 00 00 3f fc 00 00 1f f0 00 18 0f f0     ......?.........
    1e04:	18 00 0f f8 00 00 00 00 00 00 00 00 0f f8 18 00     ................
    1e14:	18 00 0f f8 00 00 3f fc 00 00 00 00 1f f8 18 18     ......?.........
    1e24:	18 18 1f f8 00 00 00 00 00 00 00 00 0f f8 18 00     ................
    1e34:	18 00 0f f8 00 00 3f fc 00 00 18 18 18 18 1f f8     ......?.........
    1e44:	18 18 0f f0 00 00 00 00 00 00 00 00 0f f8 18 00     ................
    1e54:	18 00 0f f8 00 00 3f fc 00 00 00 00 01 80 01 80     ......?.........
    1e64:	07 e0 1c 38 00 00 00 00 00 00 00 00 0f f8 18 00     ...8............
    1e74:	18 00 0f f8 00 00 3f fc 00 00 00 00 0f f0 18 18     ......?.........
    1e84:	18 18 0f f0 00 00 00 00 00 00 00 00 00 18 1f d8     ................
    1e94:	30 18 30 18 30 18 30 18 30 18 30 18 30 18 30 18     0.0.0.0.0.0.0.0.
    1ea4:	1f f8 00 18 00 00 00 00 00 00 00 00 1f d8 30 18     ..............0.
    1eb4:	30 18 30 18 30 18 1f f8 00 18 00 18 00 18 18 00     0.0.0...........
    1ec4:	18 00 0f f8 00 00 00 00 00 00 00 00 1f d8 30 18     ..............0.
    1ed4:	30 18 30 18 30 18 1f f8 00 18 00 00 0f f0 18 18     0.0.0...........
    1ee4:	18 18 0f f0 00 00 00 00 00 00 00 00 00 18 1d f8     ................
    1ef4:	33 18 33 18 33 18 33 1e 33 18 33 18 33 18 33 18     3.3.3.3.3.3.3.3.
    1f04:	1f f8 00 18 00 00 00 00 00 00 00 00 1d f8 33 18     ..............3.
    1f14:	33 18 33 1e 33 18 33 18 1f f8 00 18 00 18 18 00     3.3.3.3.........
    1f24:	18 00 0f f8 00 00 00 00 00 00 00 00 1d f8 33 18     ..............3.
    1f34:	33 1e 33 18 33 18 1f f8 00 00 1f f0 00 18 0f f0     3.3.3...........
    1f44:	18 00 0f f8 00 00 00 00 00 00 00 00 1d f8 33 18     ..............3.
    1f54:	33 1e 33 18 33 18 1f f8 00 18 00 00 0f f0 18 18     3.3.3...........
    1f64:	18 18 0f f0 00 00 00 00 00 00 00 00 00 d8 1f d8     ................
    1f74:	36 d8 36 d8 36 d8 36 f8 36 d8 36 d8 36 d8 36 d8     6.6.6.6.6.6.6.6.
    1f84:	1f d8 00 d8 00 00 00 00 00 00 00 00 00 18 1d d8     ................
    1f94:	33 18 33 18 33 18 33 78 33 18 33 18 33 18 33 18     3.3.3.3x3.3.3.3.
    1fa4:	1f f8 00 18 00 00 00 00 00 00 00 00 1d d8 33 18     ..............3.
    1fb4:	33 78 33 18 33 18 33 18 1f f8 00 18 00 18 18 00     3x3.3.3.........
    1fc4:	18 00 0f f8 00 00 00 00 00 00 00 00 1d d8 33 18     ..............3.
    1fd4:	33 78 33 18 33 18 1f f8 00 00 1f f0 00 18 0f f0     3x3.3...........
    1fe4:	18 00 0f f8 00 00 00 00 00 00 00 00 1d d8 33 18     ..............3.
    1ff4:	33 78 33 18 33 18 1f f8 00 18 01 80 0f f8 03 60     3x3.3..........`
    2004:	06 30 03 e0 00 00 00 00 00 00 00 00 00 78 1f f8     .0...........x..
    2014:	36 78 36 78 36 78 37 f8 36 78 36 78 36 78 36 78     6x6x6x7.6x6x6x6x
    2024:	1f f8 00 78 00 00 00 00 00 00 00 00 00 00 0f 78     ...x...........x
    2034:	18 c0 18 c0 18 c0 18 c0 0f 78 01 80 01 80 01 80     .........x......
    2044:	3f fc 00 00 00 00 00 00 00 00 00 00 0f 78 18 c0     ?............x..
    2054:	18 c0 18 c0 0f 78 00 00 00 00 3f fc 01 80 01 80     .....x....?.....
    2064:	01 80 01 80 00 00 00 00 00 00 00 00 0f 78 18 c0     .............x..
    2074:	18 c0 0f 78 00 00 3f fc 01 80 01 80 0f f0 18 18     ...x..?.........
    2084:	18 18 0f f0 00 00 00 00 00 00 00 00 1d f8 33 18     ..............3.
    2094:	33 18 33 18 1f f8 00 18 3f f8 06 18 06 18 06 18     3.3.....?.......
    20a4:	0c 18 00 18 00 00 00 00 00 00 00 00 00 00 0f 78     ...............x
    20b4:	18 c0 18 c0 18 c0 18 c0 0f 78 00 00 00 00 00 00     .........x......
    20c4:	3f fc 00 00 00 00 00 00 00 00 00 00 0f 78 18 c0     ?............x..
    20d4:	18 c0 0f 78 00 00 00 00 3f fc 00 00 00 00 18 00     ...x....?.......
    20e4:	18 00 0f f8 00 00 00 00 00 00 00 00 0f 78 18 c0     .............x..
    20f4:	18 c0 0f 78 00 00 00 00 3f fc 00 00 01 80 01 80     ...x....?.......
    2104:	07 e0 1c 38 00 00 00 00 00 00 00 00 1d f8 33 18     ...8..........3.
    2114:	33 18 33 18 33 18 1f f8 00 18 00 18 00 18 3f f8     3.3.3.........?.
    2124:	00 18 00 18 00 00 00 00 00 00 00 00 00 18 3f 18     ..............?.
    2134:	01 98 01 98 01 98 1f 1e 30 18 30 18 30 18 30 18     ........0.0.0.0.
    2144:	1f f8 00 18 00 00 00 00 00 00 00 00 3f 98 00 d8     ............?...
    2154:	1f 9e 30 18 30 18 1f f8 00 18 00 00 1f f0 00 18     ..0.0...........
    2164:	00 18 00 18 00 00 00 00 00 00 00 00 3f 18 01 98     ............?...
    2174:	01 98 1f 1e 30 18 30 18 1f f8 00 18 18 18 18 00     ....0.0.........
    2184:	18 00 0f f8 00 00 00 00 00 00 00 00 3f 98 00 d8     ............?...
    2194:	1f 9e 30 18 30 18 1f f8 00 18 00 00 1f f8 18 18     ..0.0...........
    21a4:	18 18 1f f8 00 00 00 00 00 00 00 00 3f 98 00 d8     ............?...
    21b4:	1f 9e 30 18 30 18 1f f8 00 18 00 00 06 60 06 60     ..0.0........`.`
    21c4:	0f f0 39 9c 00 00 00 00 00 00 00 00 3f 98 00 d8     ..9.........?...
    21d4:	1f 9e 30 18 30 18 1f f8 00 18 00 00 0f f0 18 18     ..0.0...........
    21e4:	18 18 0f f0 00 00 00 00 00 00 00 00 00 d8 3c d8     ..............<.
    21f4:	06 d8 06 d8 06 d8 1c f8 30 d8 30 d8 30 d8 30 d8     ........0.0.0.0.
    2204:	1f d8 00 d8 00 00 00 00 00 00 00 00 3e d8 03 d8     ............>...
    2214:	1e d8 30 f8 30 d8 1f d8 00 18 00 00 1f f0 00 18     ..0.0...........
    2224:	00 18 00 18 00 00 00 00 00 00 00 00 3c d8 06 d8     ............<...
    2234:	06 d8 1c d8 30 f8 30 d8 1f d8 00 d8 00 18 18 00     ....0.0.........
    2244:	18 00 0f f8 00 00 00 00 00 00 00 00 3e d8 03 d8     ............>...
    2254:	1e d8 30 f8 30 d8 1f d8 00 18 00 18 01 80 01 80     ..0.0...........
    2264:	07 e0 1c 38 00 00 00 00 00 00 00 00 3f 98 00 d8     ...8........?...
    2274:	1f 9e 30 18 30 18 1f fe 00 18 00 00 1f f0 00 18     ..0.0...........
    2284:	00 18 00 18 00 00 00 00 00 00 00 00 3f 98 00 d8     ............?...
    2294:	1f 9e 30 18 30 18 1f fe 00 18 00 00 0f f0 18 18     ..0.0...........
    22a4:	18 18 0f f0 00 00 00 00 00 00 00 00 00 18 3f 18     ..............?.
    22b4:	01 98 01 98 01 98 1f 78 30 18 30 18 30 18 30 18     .......x0.0.0.0.
    22c4:	1f d8 00 18 00 00 00 00 00 00 00 00 3f 18 01 98     ............?...
    22d4:	01 98 1f 78 30 18 30 18 1f d8 00 18 18 18 18 00     ...x0.0.........
    22e4:	18 00 0f f8 00 00 00 00 00 00 00 00 3f 18 01 98     ............?...
    22f4:	1f 78 30 18 30 18 1f d8 00 00 1f f0 00 18 0f f0     .x0.0...........
    2304:	18 00 0f f8 00 00 00 00 00 00 00 00 3f 18 01 98     ............?...
    2314:	1f 78 30 18 30 18 1f d8 00 18 00 00 1f f8 18 18     .x0.0...........
    2324:	18 18 1f f8 00 00 00 00 00 00 00 00 3f 18 01 98     ............?...
    2334:	1f 78 30 18 30 18 1f d8 00 00 18 18 18 18 1f f8     .x0.0...........
    2344:	18 18 0f f0 00 00 00 00 00 00 00 00 3f 18 01 98     ............?...
    2354:	1f 78 30 18 30 18 1f d8 00 18 00 00 06 60 06 60     .x0.0........`.`
    2364:	0f f0 39 9c 00 00 00 00 00 00 00 00 3f 18 01 98     ..9.........?...
    2374:	1f 78 30 18 30 18 1f d8 00 18 00 00 0f f0 18 18     .x0.0...........
    2384:	18 18 0f f0 00 00 00 00 00 00 00 00 3f 18 01 98     ............?...
    2394:	1f 78 30 18 30 18 1f d8 00 18 01 80 0f f8 03 60     .x0.0..........`
    23a4:	06 30 03 e0 00 00 00 00 00 00 00 00 00 d8 3c d8     .0............<.
    23b4:	06 d8 06 d8 06 d8 1f d8 30 d8 30 d8 30 d8 30 d8     ........0.0.0.0.
    23c4:	1f d8 00 d8 00 00 00 00 00 00 00 00 3c d8 06 d8     ............<...
    23d4:	06 d8 1f d8 30 d8 30 d8 1f d8 00 d8 00 18 18 00     ....0.0.........
    23e4:	18 00 0f f8 00 00 00 00 00 00 00 00 00 18 3f 18     ..............?.
    23f4:	01 98 01 f8 01 98 1f 18 30 18 30 78 30 18 30 18     ........0.0x0.0.
    2404:	1f d8 00 18 00 00 00 00 00 00 00 00 3f 18 01 f8     ............?...
    2414:	1f 18 30 78 30 18 1f d8 00 18 00 00 1f f0 00 18     ..0x0...........
    2424:	00 18 00 18 00 00 00 00 00 00 00 00 3f 18 01 f8     ............?...
    2434:	01 98 1f 18 30 78 30 18 1f f8 00 18 00 18 18 00     ....0x0.........
    2444:	18 00 0f f8 00 00 00 00 00 00 00 00 3f 18 01 f8     ............?...
    2454:	1f 18 30 f8 30 18 1f d8 00 00 1f f0 00 18 0f f0     ..0.0...........
    2464:	18 00 0f f8 00 00 00 00 00 00 00 00 3f 18 01 f8     ............?...
    2474:	1f 18 30 f8 30 18 1f d8 00 18 00 00 1f f8 18 18     ..0.0...........
    2484:	18 18 1f f8 00 00 00 00 00 00 00 00 3f 18 01 f8     ............?...
    2494:	1f 18 30 78 30 18 1f d8 00 18 00 00 18 18 1f f8     ..0x0...........
    24a4:	18 18 0f f0 00 00 00 00 00 00 00 00 3f 18 01 f8     ............?...
    24b4:	1f 18 30 f8 30 18 1f d8 00 18 00 00 06 60 06 60     ..0.0........`.`
    24c4:	0f f0 39 9c 00 00 00 00 00 00 00 00 3f 18 01 f8     ..9.........?...
    24d4:	1f 18 30 f8 30 18 1f d8 00 18 00 00 0f f0 18 18     ..0.0...........
    24e4:	18 18 0f f0 00 00 00 00 00 00 00 00 00 d8 3c d8     ..............<.
    24f4:	06 d8 07 d8 06 d8 1c d8 30 d8 33 d8 30 d8 30 d8     ........0.3.0.0.
    2504:	1f d8 00 d8 00 00 00 00 00 00 00 00 00 00 1f f0     ................
    2514:	00 18 00 18 0f f0 18 00 18 00 0f f8 01 80 01 80     ................
    2524:	3f fc 00 00 00 00 00 00 00 00 00 00 1f f0 00 18     ?...............
    2534:	0f f0 18 00 0f f8 01 80 3f fc 00 00 1f f0 00 18     ........?.......
    2544:	00 18 00 18 00 00 00 00 00 00 00 00 1f f0 00 18     ................
    2554:	0f f0 18 00 0f f8 01 80 01 80 3f fc 00 00 18 00     ..........?.....
    2564:	18 00 0f f8 00 00 00 00 00 00 00 00 1f f0 00 18     ................
    2574:	0f f0 18 00 0f f8 01 80 01 80 3f fc 00 18 0f f0     ..........?.....
    2584:	18 00 0f f8 00 00 00 00 00 00 00 00 1f f0 00 18     ................
    2594:	0f f0 18 00 0f f8 01 80 01 80 3f fc 18 18 1f f8     ..........?.....
    25a4:	18 18 0f f0 00 00 00 00 00 00 00 00 1f f0 00 18     ................
    25b4:	0f f0 18 00 0f f8 01 80 3f fc 00 00 00 00 01 80     ........?.......
    25c4:	07 e0 1c 38 00 00 00 00 00 00 00 00 1f f0 00 18     ...8............
    25d4:	0f f0 18 00 0f f8 01 80 3f fc 00 00 0f f0 18 18     ........?.......
    25e4:	18 18 0f f0 00 00 00 00 00 00 00 00 00 00 1f f0     ................
    25f4:	00 18 00 18 0f f0 18 00 18 00 0f f8 06 60 06 60     .............`.`
    2604:	3f fc 00 00 00 00 00 00 00 00 00 00 1f f0 00 18     ?...............
    2614:	0f f0 18 00 18 00 0f f8 00 00 3f fc 01 80 01 80     ..........?.....
    2624:	01 80 01 80 00 00 00 00 00 00 00 00 1f f0 00 18     ................
    2634:	0f f0 18 00 0f f8 00 00 3f fc 01 80 01 80 19 80     ........?.......
    2644:	18 00 0f f8 00 00 00 00 00 00 00 00 1f f0 00 18     ................
    2654:	0f f0 18 00 0f f8 00 00 3f fc 01 80 1f f8 18 18     ........?.......
    2664:	18 18 1f f8 00 00 00 00 00 00 00 00 1f f0 00 18     ................
    2674:	0f f0 18 00 0f f8 00 00 3f fc 01 80 18 18 1f f8     ........?.......
    2684:	18 18 0f f0 00 00 00 00 00 00 00 00 3f 98 00 d8     ............?...
    2694:	1f 98 30 18 30 18 1f d8 00 18 3f f8 06 18 06 f8     ..0.0.....?.....
    26a4:	06 18 0c 18 00 00 00 00 00 00 00 00 1f f0 00 18     ................
    26b4:	0f f0 18 00 18 00 0f f8 00 00 3f fc 06 60 06 60     ..........?..`.`
    26c4:	06 60 06 60 00 00 00 00 00 00 00 00 1f f0 00 18     .`.`............
    26d4:	0f f0 18 00 3f fc 06 60 06 60 1f f0 00 18 0f f0     ....?..`.`......
    26e4:	18 00 0f f8 00 00 00 00 00 00 00 00 1f f0 00 18     ................
    26f4:	0f f0 18 00 0f f8 00 00 3f fc 06 60 1f f8 18 18     ........?..`....
    2704:	18 18 1f f8 00 00 00 00 00 00 00 00 00 00 1f f0     ................
    2714:	00 18 00 18 0f f0 18 00 18 00 0f f8 00 00 00 00     ................
    2724:	3f fc 00 00 00 00 00 00 00 00 00 00 1f f0 00 18     ?...............
    2734:	0f f0 18 00 18 00 0f f8 00 00 3f fc 00 00 18 00     ..........?.....
    2744:	18 00 0f f8 00 00 00 00 00 00 00 00 1f f0 00 18     ................
    2754:	0f f0 18 00 3f fc 00 00 00 00 1f f0 00 18 0f f0     ....?...........
    2764:	18 00 0f f8 00 00 00 00 00 00 00 00 1f f0 00 18     ................
    2774:	0f f0 18 00 0f f8 00 00 3f fc 00 00 1f f8 18 18     ........?.......
    2784:	18 18 1f f8 00 00 00 00 00 00 00 00 1f f0 00 18     ................
    2794:	0f f0 18 00 0f f8 00 00 3f fc 00 00 18 18 1f f8     ........?.......
    27a4:	18 18 0f f0 00 00 00 00 00 00 00 00 00 18 3f 18     ..............?.
    27b4:	01 98 01 98 01 98 1f 18 30 18 30 18 30 18 30 18     ........0.0.0.0.
    27c4:	1f d8 00 18 00 00 00 00 00 00 00 00 3f 98 00 d8     ............?...
    27d4:	1f 98 30 18 30 18 1f f8 00 18 00 00 1f f0 00 18     ..0.0...........
    27e4:	00 18 00 18 00 00 00 00 00 00 00 00 3f 18 01 98     ............?...
    27f4:	01 98 1f 18 30 18 30 18 1f f8 00 18 00 18 18 00     ....0.0.........
    2804:	18 00 0f f8 00 00 00 00 00 00 00 00 3f 98 00 d8     ............?...
    2814:	1f 98 30 18 30 18 1f f8 00 00 1f f0 00 18 0f f0     ..0.0...........
    2824:	18 00 0f f8 00 00 00 00 00 00 00 00 3f 98 00 d8     ............?...
    2834:	1f 98 30 18 30 18 1f f8 00 18 00 00 1f f8 18 18     ..0.0...........
    2844:	18 18 1f f8 00 00 00 00 00 00 00 00 3f 98 00 d8     ............?...
    2854:	1f 98 30 18 30 18 1f f8 00 00 18 18 18 18 1f f8     ..0.0...........
    2864:	18 18 0f f0 00 00 00 00 00 00 00 00 3f 98 00 d8     ............?...
    2874:	1f 98 30 18 30 18 1f f8 00 18 00 18 01 80 01 80     ..0.0...........
    2884:	07 e0 1c 38 00 00 00 00 00 00 00 00 00 18 3f 98     ...8..........?.
    2894:	31 98 31 98 31 98 31 9e 31 98 31 98 31 98 31 98     1.1.1.1.1.1.1.1.
    28a4:	3f 98 00 18 00 00 00 00 00 00 00 00 3f 98 31 98     ?...........?.1.
    28b4:	31 9e 31 98 31 98 3f 98 00 18 00 00 1f f0 00 18     1.1.1.?.........
    28c4:	00 18 00 18 00 00 00 00 00 00 00 00 3f 98 31 98     ............?.1.
    28d4:	31 98 31 9e 31 98 3f 98 00 18 00 18 00 18 18 00     1.1.1.?.........
    28e4:	18 00 0f f8 00 00 00 00 00 00 00 00 3f 98 31 98     ............?.1.
    28f4:	31 9e 31 98 31 98 3f 98 00 f0 00 00 1b fc 18 f0     1.1.1.?.........
    2904:	19 98 0f f0 00 00 00 00 00 00 00 00 3f 98 31 98     ............?.1.
    2914:	31 9e 31 98 3f 98 00 18 00 00 1f f0 00 18 0f f0     1.1.?...........
    2924:	18 00 0f f8 00 00 00 00 00 00 00 00 3f 98 31 98     ............?.1.
    2934:	31 9e 31 98 31 98 3f 98 00 18 00 00 1f f8 18 18     1.1.1.?.........
    2944:	18 18 1f f8 00 00 00 00 00 00 00 00 3f 98 31 98     ............?.1.
    2954:	31 9e 31 98 31 98 3f 98 00 18 00 18 01 80 01 80     1.1.1.?.........
    2964:	07 e0 1c 38 00 00 00 00 00 00 00 00 3f 98 31 98     ...8........?.1.
    2974:	31 9e 31 98 31 98 3f 98 00 18 00 00 0f f0 18 18     1.1.1.?.........
    2984:	18 18 0f f0 00 00 00 00 00 00 00 00 3f 98 31 98     ............?.1.
    2994:	31 9e 31 98 31 98 3f 98 00 18 00 00 1f f8 01 80     1.1.1.?.........
    29a4:	07 e0 1c 38 00 00 00 00 00 00 00 00 3f 98 31 98     ...8........?.1.
    29b4:	31 9e 31 98 3f 98 00 18 00 00 0f f8 18 00 1f f8     1.1.?...........
    29c4:	18 00 0f f8 00 00 00 00 00 00 00 00 00 d8 3e d8     ..............>.
    29d4:	36 d8 36 d8 36 d8 36 f8 36 d8 36 d8 36 d8 36 d8     6.6.6.6.6.6.6.6.
    29e4:	3e d8 00 d8 00 00 00 00 00 00 00 00 3e d8 36 d8     >...........>.6.
    29f4:	36 d8 36 f8 36 d8 3e d8 00 18 00 00 1f f0 00 18     6.6.6.>.........
    2a04:	00 18 00 18 00 00 00 00 00 00 00 00 00 18 3f 98     ..............?.
    2a14:	31 98 31 98 31 98 31 f8 31 98 31 98 31 98 31 98     1.1.1.1.1.1.1.1.
    2a24:	3f 98 00 18 00 00 00 00 00 00 00 00 3f 98 31 98     ?...........?.1.
    2a34:	31 f8 31 98 31 98 3f 98 00 18 00 18 18 18 18 00     1.1.1.?.........
    2a44:	18 00 0f f8 00 00 00 00 00 00 00 00 3f 98 31 98     ............?.1.
    2a54:	31 f8 31 98 31 98 3f 98 00 18 00 18 01 80 01 80     1.1.1.?.........
    2a64:	07 e0 1c 38 00 00 00 00 00 00 00 00 00 d8 3e d8     ...8..........>.
    2a74:	36 d8 36 d8 36 d8 37 d8 36 d8 36 d8 36 d8 36 d8     6.6.6.7.6.6.6.6.
    2a84:	3e d8 00 d8 00 00 00 00 00 00 00 00 3e d8 36 d8     >...........>.6.
    2a94:	36 d8 37 d8 36 d8 36 d8 3e d8 00 d8 00 18 18 00     6.7.6.6.>.......
    2aa4:	18 00 0f f8 00 00 00 00 00 00 00 00 3e d8 36 d8     ............>.6.
    2ab4:	37 d8 36 d8 36 d8 3e d8 00 18 00 00 1f f8 18 18     7.6.6.>.........
    2ac4:	18 18 1f f8 00 00 00 00 00 00 00 00 00 18 3f 98     ..............?.
    2ad4:	31 98 31 f8 31 98 31 98 31 98 31 f8 31 98 31 98     1.1.1.1.1.1.1.1.
    2ae4:	3f 98 00 18 00 00 00 00 00 00 00 00 3f 98 31 f8     ?...........?.1.
    2af4:	31 98 31 98 31 f8 3f 98 00 18 00 18 18 18 18 00     1.1.1.?.........
    2b04:	18 00 0f f8 00 00 00 00 00 00 00 00 3f 98 31 f8     ............?.1.
    2b14:	31 98 31 98 31 f8 3f 98 00 18 00 00 0f f0 18 18     1.1.1.?.........
    2b24:	18 18 0f f0 00 00 00 00 00 00 00 00 3f 98 31 f8     ............?.1.
    2b34:	31 98 31 f8 3f 98 00 18 03 d8 00 00 1f f8 01 80     1.1.?...........
    2b44:	07 e0 1c 38 00 00 00 00 00 00 00 00 00 00 1f f8     ...8............
    2b54:	18 18 18 18 18 18 18 18 1f f8 01 80 01 80 01 80     ................
    2b64:	3f fc 00 00 00 00 00 00 00 00 00 00 1f f8 18 18     ?...............
    2b74:	18 18 1f f8 01 80 01 80 3f fc 00 00 1f f0 00 18     ........?.......
    2b84:	00 18 00 18 00 00 00 00 00 00 00 00 1f f8 18 18     ................
    2b94:	18 18 1f f8 01 80 3f fc 00 00 1f f0 00 18 0f f0     ......?.........
    2ba4:	18 00 0f f8 00 00 00 00 00 00 00 00 1f f8 18 18     ................
    2bb4:	18 18 1f f8 01 80 01 80 3f fc 00 00 1f f8 18 18     ........?.......
    2bc4:	18 18 1f f8 00 00 00 00 00 00 00 00 1f f8 18 18     ................
    2bd4:	18 18 1f f8 01 80 01 80 3f fc 00 00 01 80 01 80     ........?.......
    2be4:	07 e0 1c 38 00 00 00 00 00 00 00 00 1f f8 18 18     ...8............
    2bf4:	18 18 1f f8 01 80 01 80 3f fc 00 00 0f f0 18 18     ........?.......
    2c04:	18 18 0f f0 00 00 00 00 00 00 00 00 1f f8 18 18     ................
    2c14:	18 18 18 18 1f f8 00 00 00 00 3f fc 01 80 01 80     ..........?.....
    2c24:	01 80 01 80 00 00 00 00 00 00 00 00 1f f8 18 18     ................
    2c34:	18 18 1f f8 00 00 3f fc 01 80 01 80 1f f0 00 18     ......?.........
    2c44:	00 18 00 18 00 00 00 00 00 00 00 00 1f f8 18 18     ................
    2c54:	18 18 1f f8 00 00 3f fc 01 80 01 80 1e f0 03 18     ......?.........
    2c64:	03 18 03 18 00 00 00 00 00 00 00 00 1f f8 18 18     ................
    2c74:	18 18 1f f8 00 00 00 00 3f fc 01 80 01 80 19 80     ........?.......
    2c84:	18 00 0f f8 00 00 00 00 00 00 00 00 1f f8 18 18     ................
    2c94:	18 18 1f f8 00 00 3f fc 01 80 1f f0 00 18 0f f0     ......?.........
    2ca4:	18 00 0f f8 00 00 00 00 00 00 00 00 1f f8 18 18     ................
    2cb4:	18 18 1f f8 00 00 3f fc 01 80 01 80 0f f0 18 18     ......?.........
    2cc4:	18 18 0f f0 00 00 00 00 00 00 00 00 3f d8 30 d8     ............?.0.
    2cd4:	30 d8 30 d8 3f d8 00 18 3f f8 06 18 06 f8 06 18     0.0.?...?.......
    2ce4:	0c 18 00 18 00 00 00 00 00 00 00 00 3f d8 30 d8     ............?.0.
    2cf4:	30 d8 3f d8 00 18 3f f8 06 18 06 f8 06 18 18 00     0.?...?.........
    2d04:	18 00 0f f8 00 00 00 00 00 00 00 00 1f f8 18 18     ................
    2d14:	18 18 18 18 1f f8 00 00 00 00 3f fc 06 60 06 60     ..........?..`.`
    2d24:	06 60 06 60 00 00 00 00 00 00 00 00 00 00 1f f8     .`.`............
    2d34:	18 18 18 18 18 18 18 18 1f f8 00 00 00 00 00 00     ................
    2d44:	3f fc 00 00 00 00 00 00 00 00 00 00 00 18 3f 98     ?.............?.
    2d54:	31 98 31 98 31 98 31 98 31 98 31 98 31 98 31 98     1.1.1.1.1.1.1.1.
    2d64:	3f 98 00 18 00 00 00 00 00 00 00 00 3f 98 31 98     ?...........?.1.
    2d74:	31 98 31 98 31 98 3f 98 00 18 00 18 18 18 18 00     1.1.1.?.........
    2d84:	18 00 0f f8 00 00 00 00 00 00 00 00 3f 98 31 98     ............?.1.
    2d94:	31 98 31 98 31 98 3f 98 00 18 00 00 0f f8 18 00     1.1.1.?.........
    2da4:	18 00 0f f8 00 00 00 00 00 00 00 00 3f 98 31 98     ............?.1.
    2db4:	31 98 31 98 3f 98 00 18 00 00 1f f0 00 18 0f f0     1.1.?...........
    2dc4:	18 00 0f f8 00 00 00 00 00 00 00 00 3f 98 31 98     ............?.1.
    2dd4:	31 98 31 98 31 98 3f 98 00 18 00 18 01 80 01 80     1.1.1.?.........
    2de4:	07 e0 1c 38 00 00 00 00 00 00 00 00 3f 98 31 98     ...8........?.1.
    2df4:	31 98 31 98 3f 98 00 18 03 c0 00 00 1f f8 01 80     1.1.?...........
    2e04:	07 e0 1c 38 00 00 00 00 00 00 00 00 3f 98 31 98     ...8........?.1.
    2e14:	31 98 31 98 3f 98 00 18 00 00 0f f8 18 00 1f f8     1.1.?...........
    2e24:	18 00 0f f8 00 00 00 00 00 00 00 00 00 18 31 98     ..............1.
    2e34:	31 98 31 98 31 98 3f 9e 31 98 31 98 31 98 31 98     1.1.1.?.1.1.1.1.
    2e44:	1f 18 00 18 00 00 00 00 00 00 00 00 31 98 31 98     ............1.1.
    2e54:	3f 9e 31 98 31 98 1f 18 00 18 00 00 1f f0 00 18     ?.1.1...........
    2e64:	00 18 00 18 00 00 00 00 00 00 00 00 31 98 31 98     ............1.1.
    2e74:	3f 9e 31 98 31 98 1f 18 00 18 00 00 1e f0 03 18     ?.1.1...........
    2e84:	03 18 03 18 00 00 00 00 00 00 00 00 31 98 31 98     ............1.1.
    2e94:	3f 98 31 9e 31 98 31 98 1f 18 00 18 18 18 18 00     ?.1.1.1.........
    2ea4:	18 00 0f f8 00 00 00 00 00 00 00 00 31 98 31 98     ............1.1.
    2eb4:	3f 9e 31 98 31 98 1f 18 00 18 00 00 0f f8 18 00     ?.1.1...........
    2ec4:	18 00 0f f8 00 00 00 00 00 00 00 00 31 98 31 98     ............1.1.
    2ed4:	3f 9e 31 98 31 98 1f 18 00 00 1f f0 00 18 0f f0     ?.1.1...........
    2ee4:	18 00 0f f8 00 00 00 00 00 00 00 00 31 98 31 98     ............1.1.
    2ef4:	3f 9e 31 98 31 98 1f 18 00 00 1f f0 01 98 0f 18     ?.1.1...........
    2f04:	18 18 0f 98 00 00 00 00 00 00 00 00 31 98 31 98     ............1.1.
    2f14:	3f 9e 31 98 31 98 1f 18 00 00 1f d8 01 d8 0f f8     ?.1.1...........
    2f24:	18 d8 0f f8 00 00 00 00 00 00 00 00 31 98 31 98     ............1.1.
    2f34:	3f 9e 31 98 31 98 1f 18 00 18 00 00 1f f8 18 18     ?.1.1...........
    2f44:	18 18 1f f8 00 00 00 00 00 00 00 00 31 98 31 98     ............1.1.
    2f54:	3f 9e 31 98 31 98 1f 18 00 18 00 00 18 18 1f f8     ?.1.1...........
    2f64:	18 18 0f f0 00 00 00 00 00 00 00 00 31 98 31 98     ............1.1.
    2f74:	3f 9e 31 98 31 98 1f 18 00 18 00 00 0f f0 18 18     ?.1.1...........
    2f84:	18 18 0f f0 00 00 00 00 00 00 00 00 00 d8 36 d8     ..............6.
    2f94:	36 d8 36 d8 36 d8 3e f8 36 d8 36 d8 36 d8 36 d8     6.6.6.>.6.6.6.6.
    2fa4:	1c d8 00 d8 00 00 00 00 00 00 00 00 36 d8 36 d8     ............6.6.
    2fb4:	3e d8 36 f8 36 d8 1c d8 00 18 00 00 1f f0 00 18     >.6.6...........
    2fc4:	00 18 00 18 00 00 00 00 00 00 00 00 6d b0 6d b0     ............m.m.
    2fd4:	7d b0 6d f0 6d b0 39 b0 00 30 00 00 1f e0 30 30     }.m.m.9..0....00
    2fe4:	30 30 1f e0 00 00 00 00 00 00 00 00 00 18 31 98     00............1.
    2ff4:	31 98 31 98 31 98 3f f8 31 98 31 98 31 98 31 98     1.1.1.?.1.1.1.1.
    3004:	1f 18 00 18 00 00 00 00 00 00 00 00 31 98 31 98     ............1.1.
    3014:	3f f8 31 98 31 98 31 98 1f 18 00 18 00 18 18 00     ?.1.1.1.........
    3024:	18 00 0f f8 00 00 00 00 00 00 00 00 31 98 31 98     ............1.1.
    3034:	3f f8 31 98 31 98 1f 18 00 00 1f f0 00 18 0f f0     ?.1.1...........
    3044:	18 00 0f f8 00 00 00 00 00 00 00 00 31 98 31 98     ............1.1.
    3054:	3f f8 31 98 31 98 1f 18 00 18 00 00 1f f8 18 18     ?.1.1...........
    3064:	18 18 1f f8 00 00 00 00 00 00 00 00 31 98 31 98     ............1.1.
    3074:	3f f8 31 98 31 98 1f 18 00 18 00 00 18 18 1f f8     ?.1.1...........
    3084:	18 18 0f f0 00 00 00 00 00 00 00 00 31 98 31 98     ............1.1.
    3094:	3f f8 31 98 31 98 1f 18 00 18 00 18 01 80 01 80     ?.1.1...........
    30a4:	07 e0 1c 38 00 00 00 00 00 00 00 00 00 d8 36 d8     ...8..........6.
    30b4:	36 d8 36 d8 36 d8 3f d8 36 d8 36 d8 36 d8 36 d8     6.6.6.?.6.6.6.6.
    30c4:	1c d8 00 d8 00 00 00 00 00 00 00 00 36 d8 36 d8     ............6.6.
    30d4:	3e d8 37 d8 36 d8 36 d8 1c d8 00 d8 00 18 18 00     >.7.6.6.........
    30e4:	18 00 0f f8 00 00 00 00 00 00 00 00 31 98 31 f8     ............1.1.
    30f4:	3f 98 31 f8 31 98 1f 18 00 18 00 00 1f f0 00 18     ?.1.1...........
    3104:	00 18 00 18 00 00 00 00 00 00 00 00 31 98 31 f8     ............1.1.
    3114:	3f 98 31 98 31 f8 31 98 1f 18 00 18 18 18 18 00     ?.1.1.1.........
    3124:	18 00 0f f8 00 00 00 00 00 00 00 00 31 98 31 f8     ............1.1.
    3134:	3f 98 31 f8 31 98 1f 18 00 00 1f f0 00 18 0f f0     ?.1.1...........
    3144:	18 00 0f f8 00 00 00 00 00 00 00 00 31 98 31 f8     ............1.1.
    3154:	3f 98 31 f8 31 98 1f 18 00 18 00 00 0f f0 18 18     ?.1.1...........
    3164:	18 18 0f f0 00 00 00 00 00 00 00 00 00 00 18 18     ................
    3174:	18 18 1f f8 18 18 18 18 0f f0 01 80 01 80 01 80     ................
    3184:	3f fc 00 00 00 00 00 00 00 00 00 00 18 18 1f f8     ?...............
    3194:	18 18 0f f0 01 80 01 80 3f fc 00 00 1f f0 00 18     ........?.......
    31a4:	00 18 00 18 00 00 00 00 00 00 00 00 18 18 1f f8     ................
    31b4:	18 18 18 18 0f f0 01 80 01 80 3f fc 00 00 18 00     ..........?.....
    31c4:	18 00 0f f8 00 00 00 00 00 00 00 00 18 18 1f f8     ................
    31d4:	18 18 0f f0 01 80 3f fc 00 00 1f f0 00 18 0f f0     ......?.........
    31e4:	18 00 0f f8 00 00 00 00 00 00 00 00 18 18 1f f8     ................
    31f4:	18 18 0f f0 01 80 01 80 3f fc 00 00 0f f0 18 18     ........?.......
    3204:	18 18 0f f0 00 00 00 00 00 00 00 00 30 d8 30 d8     ............0.0.
    3214:	3f d8 30 d8 30 d8 1f 9e 06 18 06 18 06 18 3f f8     ?.0.0.........?.
    3224:	00 18 00 18 00 00 00 00 00 00 00 00 18 18 18 18     ................
    3234:	1f f8 18 18 0f f0 00 00 00 00 3f fc 01 80 01 80     ..........?.....
    3244:	01 80 01 80 00 00 00 00 00 00 00 00 18 18 1f f8     ................
    3254:	18 18 0f f0 00 00 3f fc 01 80 01 80 1f f0 00 18     ......?.........
    3264:	00 18 00 18 00 00 00 00 00 00 00 00 18 18 1f f8     ................
    3274:	18 18 0f f0 00 00 00 00 3f fc 01 80 01 80 19 80     ........?.......
    3284:	18 00 0f f8 00 00 00 00 00 00 00 00 18 18 1f f8     ................
    3294:	18 18 0f f0 00 00 3f fc 01 80 1f f0 00 18 0f f0     ......?.........
    32a4:	18 00 0f f8 00 00 00 00 00 00 00 00 18 18 1f f8     ................
    32b4:	18 18 0f f0 00 00 3f fc 01 80 0f f8 18 00 1f f8     ......?.........
    32c4:	18 00 0f f8 00 00 00 00 00 00 00 00 18 18 18 18     ................
    32d4:	1f f8 18 18 0f f0 00 00 00 00 3f fc 06 60 06 60     ..........?..`.`
    32e4:	06 60 06 60 00 00 00 00 00 00 00 00 00 00 18 18     .`.`............
    32f4:	18 18 1f f8 18 18 18 18 0f f0 00 00 00 00 00 00     ................
    3304:	3f fc 00 00 00 00 00 00 00 00 00 00 18 18 1f f8     ?...............
    3314:	18 18 0f f0 00 00 3f fc 00 00 1f f0 00 18 0f f0     ......?.........
    3324:	18 00 0f f8 00 00 00 00 00 00 00 00 00 18 31 98     ..............1.
    3334:	31 98 31 98 31 98 3f 98 31 98 31 98 31 98 31 98     1.1.1.?.1.1.1.1.
    3344:	1f 18 00 18 00 00 00 00 00 00 00 00 31 98 31 98     ............1.1.
    3354:	3f 98 31 98 31 98 1f 18 00 18 00 00 1f f0 00 18     ?.1.1...........
    3364:	00 18 00 18 00 00 00 00 00 00 00 00 31 98 31 98     ............1.1.
    3374:	3f 98 31 98 31 98 1f 18 00 00 1f f0 00 18 0f f0     ?.1.1...........
    3384:	18 00 0f f8 00 00 00 00 00 00 00 00 31 98 31 98     ............1.1.
    3394:	3f 98 31 98 31 98 1f 18 00 18 00 18 01 80 01 80     ?.1.1...........
    33a4:	07 e0 1c 38 00 00 00 00 00 00 00 00 31 98 31 98     ...8........1.1.
    33b4:	3f 98 31 98 31 98 1f 18 00 18 00 00 1f f8 01 80     ?.1.1...........
    33c4:	07 e0 1c 38 00 00 00 00 00 00 00 00 31 98 31 98     ...8........1.1.
    33d4:	3f 98 31 98 31 98 1f 18 00 18 03 c0 00 00 1f f8     ?.1.1...........
    33e4:	03 c0 1e 78 00 00 00 00 00 00 00 00 00 18 3f d8     ...x..........?.
    33f4:	3f d8 3f d8 3f d8 3f de 3f d8 3f d8 3f d8 3f d8     ?.?.?.?.?.?.?.?.
    3404:	19 98 00 18 00 00 00 00 00 00 00 00 00 d8 3f d8     ..............?.
    3414:	3f d8 3f d8 3f d8 3f f8 3f d8 3f d8 3f d8 3f d8     ?.?.?.?.?.?.?.?.
    3424:	1e d8 00 d8 00 00 00 00 00 00 00 00 3f d8 3f d8     ............?.?.
    3434:	3f f8 3f d8 3f d8 19 98 00 18 00 00 0f f8 18 00     ?.?.?...........
    3444:	18 00 0f f8 00 00 00 00 00 00 00 00 1b d8 1f f8     ................
    3454:	1b d8 1b d8 0f f0 01 80 3f fc 00 00 1f f8 18 18     ........?.......
    3464:	18 18 1f f8 00 00 00 00 00 00 00 00 1b d8 1f f8     ................
    3474:	1b d8 1b d8 0e 70 00 00 00 00 3f fc 01 80 01 80     .....p....?.....
    3484:	01 80 01 80 00 00 00 00 00 00 00 00 1b d8 1f f8     ................
    3494:	1b d8 1b d8 0e 70 00 00 3f fc 01 80 01 80 19 80     .....p..?.......
    34a4:	18 00 0f f8 00 00 00 00 00 00 00 00 1b d8 1f f8     ................
    34b4:	1b d8 1b d8 0e 70 00 00 3f fc 00 00 00 00 18 00     .....p..?.......
    34c4:	18 00 0f f8 00 00 00 00 00 00 00 00 00 18 06 18     ................
    34d4:	06 18 06 18 06 18 0e 1e 0f 18 0f 18 19 98 19 98     ................
    34e4:	30 d8 00 18 00 00 00 00 00 00 00 00 06 18 06 18     0...............
    34f4:	06 18 0f 1e 0d 98 18 d8 30 18 00 18 00 18 18 00     ........0.......
    3504:	18 00 0f f8 00 00 00 00 00 00 00 00 06 18 06 18     ................
    3514:	0f 1e 0d 98 18 d8 30 18 00 00 1f f0 00 18 0f f0     ......0.........
    3524:	18 00 0f f8 00 00 00 00 00 00 00 00 06 18 06 18     ................
    3534:	0f 1e 0d 98 18 d8 30 18 00 00 1f f8 01 d8 0f d8     ......0.........
    3544:	18 d8 0f f8 00 00 00 00 00 00 00 00 06 18 06 18     ................
    3554:	06 1e 0f 18 0d 98 18 d8 30 18 00 00 1f f8 18 18     ........0.......
    3564:	18 18 1f f8 00 00 00 00 00 00 00 00 06 18 06 18     ................
    3574:	06 1e 0f 18 0d 98 18 d8 30 18 00 00 06 60 06 60     ........0....`.`
    3584:	0f f0 39 9c 00 00 00 00 00 00 00 00 06 18 06 18     ..9.............
    3594:	06 1e 0f 18 0d 98 18 d8 30 18 00 00 0f f0 18 18     ........0.......
    35a4:	18 18 0f f0 00 00 00 00 00 00 00 00 00 d8 0c d8     ................
    35b4:	0c d8 0c d8 0c d8 0c f8 1c d8 1e d8 1e d8 33 d8     ..............3.
    35c4:	33 d8 00 d8 00 00 00 00 00 00 00 00 0c d8 0c d8     3...............
    35d4:	0c d8 1e f8 1e d8 33 d8 00 18 00 00 1f f0 00 18     ......3.........
    35e4:	00 18 00 18 00 00 00 00 00 00 00 00 0c d8 0c d8     ................
    35f4:	0c d8 0c d8 1e f8 1e d8 33 d8 00 d8 00 18 18 00     ........3.......
    3604:	18 00 0f f8 00 00 00 00 00 00 00 00 0c d8 0c d8     ................
    3614:	0c d8 1e f8 1e d8 33 d8 00 18 00 00 1f f8 18 18     ......3.........
    3624:	18 18 1f f8 00 00 00 00 00 00 00 00 0c d8 0c d8     ................
    3634:	0c d8 1e f8 1e d8 33 d8 00 18 00 00 0f f0 18 18     ......3.........
    3644:	18 18 0f f0 00 00 00 00 00 00 00 00 00 18 06 18     ................
    3654:	06 18 06 1e 06 18 0e 18 0f 18 0f 1e 19 98 19 98     ................
    3664:	30 d8 00 18 00 00 00 00 00 00 00 00 00 18 06 18     0...............
    3674:	06 18 06 18 06 18 0f f8 0f 18 0f 18 19 98 19 98     ................
    3684:	30 d8 00 18 00 00 00 00 00 00 00 00 06 18 06 18     0...............
    3694:	06 f8 0f 18 0d 98 18 d8 30 18 00 00 1f f0 00 18     ........0.......
    36a4:	00 18 00 18 00 00 00 00 00 00 00 00 06 18 06 18     ................
    36b4:	06 f8 0f 18 0d 98 18 d8 30 18 00 18 00 18 18 00     ........0.......
    36c4:	18 00 0f f8 00 00 00 00 00 00 00 00 06 18 06 18     ................
    36d4:	0f f8 0d 98 18 d8 30 18 00 00 1f f0 00 18 0f f0     ......0.........
    36e4:	18 00 0f f8 00 00 00 00 00 00 00 00 06 18 06 18     ................
    36f4:	06 f8 0f 18 0d 98 18 d8 30 18 00 00 1f f8 18 18     ........0.......
    3704:	18 18 1f f8 00 00 00 00 00 00 00 00 06 18 06 18     ................
    3714:	06 f8 0f 18 0d 98 18 d8 30 18 00 00 18 18 1f f8     ........0.......
    3724:	18 18 0f f0 00 00 00 00 00 00 00 00 06 18 06 18     ................
    3734:	06 f8 0f 18 0d 98 18 d8 30 18 00 18 01 80 01 80     ........0.......
    3744:	07 e0 1c 38 00 00 00 00 00 00 00 00 06 18 06 18     ...8............
    3754:	06 f8 0f 18 0d 98 18 d8 30 18 00 00 06 60 06 60     ........0....`.`
    3764:	0f f0 39 9c 00 00 00 00 00 00 00 00 06 18 06 18     ..9.............
    3774:	06 f8 0f 18 0d 98 18 d8 30 18 00 00 0f f0 18 18     ........0.......
    3784:	18 18 0f f0 00 00 00 00 00 00 00 00 00 d8 0c d8     ................
    3794:	0c d8 0c d8 0c d8 0f d8 1c d8 1e d8 1e d8 33 d8     ..............3.
    37a4:	33 d8 00 d8 00 00 00 00 00 00 00 00 0c d8 0c d8     3...............
    37b4:	0c d8 0f d8 1e d8 1e d8 33 d8 00 d8 00 18 18 00     ........3.......
    37c4:	18 00 0f f8 00 00 00 00 00 00 00 00 0c d8 0c d8     ................
    37d4:	1f d8 1e d8 33 d8 00 d8 00 00 1f f0 00 18 0f f0     ....3...........
    37e4:	18 00 0f f8 00 00 00 00 00 00 00 00 00 18 06 18     ................
    37f4:	06 18 06 f8 06 18 0e 18 0f 18 0f f8 19 98 19 98     ................
    3804:	30 d8 00 18 00 00 00 00 00 00 00 00 06 18 06 78     0..............x
    3814:	06 18 0f 18 0d f8 18 d8 30 18 00 18 00 18 18 00     ........0.......
    3824:	18 00 0f f8 00 00 00 00 00 00 00 00 06 18 06 f8     ................
    3834:	0f 18 0d f8 18 d8 30 18 00 00 1f f0 00 18 0f f0     ......0.........
    3844:	18 00 0f f8 00 00 00 00 00 00 00 00 00 00 01 80     ................
    3854:	01 80 03 c0 03 c0 06 60 1c 38 01 80 01 80 01 80     .......`.8......
    3864:	3f fc 00 00 00 00 00 00 00 00 00 00 01 80 03 c0     ?...............
    3874:	06 60 1c 38 01 80 01 80 3f fc 00 00 1f f0 00 18     .`.8....?.......
    3884:	00 18 00 18 00 00 00 00 00 00 00 00 01 80 03 c0     ................
    3894:	06 60 1c 38 01 80 01 80 3f fc 00 00 00 00 18 00     .`.8....?.......
    38a4:	18 00 0f f8 00 00 00 00 00 00 00 00 01 80 03 c0     ................
    38b4:	06 60 1d b8 01 80 3f fc 00 00 1f f0 00 18 0f f0     .`....?.........
    38c4:	18 00 0f f8 00 00 00 00 00 00 00 00 01 80 03 c0     ................
    38d4:	06 60 1c 38 01 80 01 80 3f fc 00 00 0f f0 18 18     .`.8....?.......
    38e4:	18 18 0f f0 00 00 00 00 00 00 00 00 0c d8 0c d8     ................
    38f4:	0c d8 1e d8 1e d8 33 f8 0c d8 0c d8 0c d8 3f d8     ......3.......?.
    3904:	00 d8 00 d8 00 00 00 00 00 00 00 00 06 18 06 18     ................
    3914:	06 18 0f 18 0f 18 19 98 36 d8 06 18 06 18 3f f8     ........6.....?.
    3924:	00 18 00 18 00 00 00 00 00 00 00 00 00 00 01 80     ................
    3934:	01 80 03 c0 03 c0 06 60 1c 38 06 60 06 60 06 60     .......`.8.`.`.`
    3944:	3f fc 00 00 00 00 00 00 00 00 00 00 01 80 01 80     ?...............
    3954:	03 c0 06 60 1c 38 00 00 00 00 3f fc 01 80 01 80     ...`.8....?.....
    3964:	01 80 01 80 00 00 00 00 00 00 00 00 01 80 03 c0     ................
    3974:	06 60 1c 38 00 00 3f fc 01 80 01 80 1f f0 00 18     .`.8..?.........
    3984:	00 18 00 18 00 00 00 00 00 00 00 00 01 80 03 c0     ................
    3994:	06 60 1c 38 00 00 00 00 3f fc 01 80 01 80 19 80     .`.8....?.......
    39a4:	18 00 0f f8 00 00 00 00 00 00 00 00 01 80 03 c0     ................
    39b4:	06 60 1c 38 00 00 3f fc 01 80 1f f0 00 18 0f f0     .`.8..?.........
    39c4:	18 00 0f f8 00 00 00 00 00 00 00 00 01 80 03 c0     ................
    39d4:	06 60 1c 38 00 00 3f fc 01 80 0f f8 18 00 1f f8     .`.8..?.........
    39e4:	18 00 0f f8 00 00 00 00 00 00 00 00 06 18 06 18     ................
    39f4:	0f 18 19 98 30 d8 00 18 3f f8 06 18 06 18 06 18     ....0...?.......
    3a04:	0c 18 00 18 00 00 00 00 00 00 00 00 06 18 07 18     ................
    3a14:	0d 98 38 d8 00 18 3f f8 06 18 06 00 18 18 1f f8     ..8...?.........
    3a24:	18 18 0f f0 00 00 00 00 00 00 00 00 01 80 01 80     ................
    3a34:	03 c0 06 60 1c 38 00 00 00 00 3f fc 06 60 06 60     ...`.8....?..`.`
    3a44:	06 60 06 60 00 00 00 00 00 00 00 00 01 80 03 c0     .`.`............
    3a54:	06 60 1c 38 00 00 3f fc 06 60 06 60 1f f8 18 18     .`.8..?..`.`....
    3a64:	18 18 1f f8 00 00 00 00 00 00 00 00 00 00 01 80     ................
    3a74:	01 80 03 c0 03 c0 06 60 1c 38 00 00 00 00 00 00     .......`.8......
    3a84:	3f fc 00 00 00 00 00 00 00 00 00 00 01 80 03 c0     ?...............
    3a94:	06 60 1c 38 00 00 00 00 3f fc 00 00 18 00 18 00     .`.8....?.......
    3aa4:	18 00 0f f8 00 00 00 00 00 00 00 00 01 80 03 c0     ................
    3ab4:	06 60 1c 38 00 00 3f fc 00 00 1f f0 00 18 0f f0     .`.8..?.........
    3ac4:	18 00 0f f8 00 00 00 00 00 00 00 00 01 80 03 c0     ................
    3ad4:	06 60 1c 38 00 00 3f fc 00 00 00 00 1f f8 18 18     .`.8..?.........
    3ae4:	18 18 1f f8 00 00 00 00 00 00 00 00 01 80 03 c0     ................
    3af4:	06 60 1c 38 00 00 3f fc 00 00 18 18 18 18 1f f8     .`.8..?.........
    3b04:	18 18 0f f0 00 00 00 00 00 00 00 00 01 80 03 c0     ................
    3b14:	06 60 1c 38 00 00 3f fc 00 00 00 00 0f f0 18 18     .`.8..?.........
    3b24:	18 18 0f f0 00 00 00 00 00 00 00 00 00 18 06 18     ................
    3b34:	06 18 06 18 06 18 0e 18 0f 18 0f 18 19 98 19 98     ................
    3b44:	30 d8 00 18 00 00 00 00 00 00 00 00 06 18 06 18     0...............
    3b54:	06 18 0f 18 0d 98 18 d8 30 18 00 00 1f f0 00 18     ........0.......
    3b64:	00 18 00 18 00 00 00 00 00 00 00 00 06 18 06 18     ................
    3b74:	06 18 0f 18 0d 98 18 d8 30 18 00 18 00 18 18 00     ........0.......
    3b84:	18 00 0f f8 00 00 00 00 00 00 00 00 06 18 06 18     ................
    3b94:	06 18 0f 18 0d 98 18 d8 30 18 00 00 0f f8 18 00     ........0.......
    3ba4:	18 00 0f f8 00 00 00 00 00 00 00 00 06 18 06 18     ................
    3bb4:	0f 18 0d 98 18 d8 30 18 00 00 1f f0 00 18 0f f0     ......0.........
    3bc4:	18 00 0f f8 00 00 00 00 00 00 00 00 06 18 06 18     ................
    3bd4:	0f 18 0d 98 18 d8 30 18 00 70 1f 00 01 fc 0f 70     ......0..p.....p
    3be4:	18 d8 0f f0 00 00 00 00 00 00 00 00 06 18 06 18     ................
    3bf4:	06 18 0f 18 0d 98 18 d8 30 18 00 00 1f f8 18 18     ........0.......
    3c04:	18 18 1f f8 00 00 00 00 00 00 00 00 06 18 06 18     ................
    3c14:	06 18 0f 18 0d 98 18 d8 30 18 00 00 18 18 1f f8     ........0.......
    3c24:	18 18 0f f0 00 00 00 00 00 00 00 00 06 18 06 18     ................
    3c34:	06 18 0f 18 0d 98 18 d8 30 18 00 00 0f f0 18 18     ........0.......
    3c44:	18 18 0f f0 00 00 00 00 00 00 00 00 06 18 06 18     ................
    3c54:	06 18 0f 18 0d 98 18 d8 30 18 00 00 1f f8 06 60     ........0......`
    3c64:	06 60 1f f8 00 00 00 00 00 00 00 00 00 18 0d 98     .`..............
    3c74:	0d 98 0d 98 0d 98 0d 9e 1f d8 1b d8 36 78 36 78     ............6x6x
    3c84:	00 18 00 18 00 00 00 00 00 00 00 00 0d 98 0d 98     ................
    3c94:	0d 9e 1f d8 1b d8 36 78 00 18 00 00 1f f0 00 18     ......6x........
    3ca4:	00 18 00 18 00 00 00 00 00 00 00 00 0d 98 0d 98     ................
    3cb4:	1d 9e 1f d8 36 d8 00 18 00 18 01 80 0f f8 03 60     ....6..........`
    3cc4:	06 30 03 e0 00 00 00 00 00 00 00 00 00 18 0d 98     .0..............
    3cd4:	0d 98 0d 98 0d 98 0d f8 1f d8 1b d8 36 78 36 78     ............6x6x
    3ce4:	00 18 00 18 00 00 00 00 00 00 00 00 0d 98 0d 98     ................
    3cf4:	0d f8 1f d8 1b d8 36 78 00 18 00 00 0f f0 18 18     ......6x........
    3d04:	18 18 0f f0 00 00 00 00 00 00 00 00 06 60 06 60     .............`.`
    3d14:	0f f0 19 98 01 80 01 80 3f fc 00 00 0f f8 18 00     ........?.......
    3d24:	18 00 0f f8 00 00 00 00 00 00 00 00 06 60 06 60     .............`.`
    3d34:	0f f0 19 98 00 00 3f fc 01 80 01 80 1f f0 00 18     ......?.........
    3d44:	00 18 00 18 00 00 00 00 00 00 00 00 00 00 06 60     ...............`
    3d54:	06 60 06 60 0f f0 0f f0 19 98 00 00 00 00 00 00     .`.`............
    3d64:	3f fc 00 00 00 00 00 00 00 00 00 00 06 60 06 60     ?............`.`
    3d74:	06 60 0f f0 19 98 00 00 3f fc 00 00 00 00 18 00     .`......?.......
    3d84:	18 00 0f f8 00 00 00 00 00 00 00 00 06 60 06 60     .............`.`
    3d94:	0f f0 19 98 00 00 3f fc 00 00 1f f0 00 18 0f f0     ......?.........
    3da4:	18 00 0f f8 00 00 00 00 00 00 00 00 06 60 06 60     .............`.`
    3db4:	0f f0 19 98 00 00 3f fc 00 00 00 00 1f f8 18 18     ......?.........
    3dc4:	18 18 1f f8 00 00 00 00 00 00 00 00 0d 98 0d 98     ................
    3dd4:	0d 98 1f d8 1b d8 36 78 00 18 00 18 00 18 3f f8     ......6x......?.
    3de4:	00 18 00 18 00 00 00 00 00 00 00 00 00 18 0d 98     ................
    3df4:	0d 98 0d 98 0d 98 0d 98 1f d8 1b d8 36 78 36 78     ............6x6x
    3e04:	00 18 00 18 00 00 00 00 00 00 00 00 0d 98 0d 98     ................
    3e14:	0d 98 1f d8 1b d8 36 78 00 18 00 00 1f f0 00 18     ......6x........
    3e24:	00 18 00 18 00 00 00 00 00 00 00 00 0d 98 0d 98     ................
    3e34:	0d 98 0d 98 1f d8 1b d8 36 78 00 18 00 18 18 00     ........6x......
    3e44:	18 00 0f f8 00 00 00 00 00 00 00 00 00 18 1f 18     ................
    3e54:	31 98 31 98 31 98 31 9e 31 98 31 98 31 98 31 98     1.1.1.1.1.1.1.1.
    3e64:	1f 18 00 18 00 00 00 00 00 00 00 00 1f 18 31 98     ..............1.
    3e74:	31 9e 31 98 31 98 1f 18 00 18 00 00 1f f0 00 18     1.1.1...........
    3e84:	00 18 00 18 00 00 00 00 00 00 00 00 1f 18 31 98     ..............1.
    3e94:	31 98 31 9e 31 98 1f 18 00 18 00 18 18 18 18 00     1.1.1...........
    3ea4:	18 00 0f f8 00 00 00 00 00 00 00 00 1f 18 31 98     ..............1.
    3eb4:	31 9e 31 98 31 98 1f 18 00 18 00 00 19 f8 18 60     1.1.1..........`
    3ec4:	18 f0 0f 98 00 00 00 00 00 00 00 00 1f 18 31 98     ..............1.
    3ed4:	31 9e 31 98 31 98 1f 18 00 f0 00 00 1b fc 18 f0     1.1.1...........
    3ee4:	19 98 0f f0 00 00 00 00 00 00 00 00 1f 18 31 98     ..............1.
    3ef4:	31 9e 31 98 1f 18 00 18 00 00 1f f0 00 18 0f f0     1.1.............
    3f04:	18 00 0f f8 00 00 00 00 00 00 00 00 1f 18 31 98     ..............1.
    3f14:	31 9e 31 98 31 98 1f 18 00 18 00 00 1f f8 18 18     1.1.1...........
    3f24:	18 18 1f f8 00 00 00 00 00 00 00 00 1f 18 31 98     ..............1.
    3f34:	31 9e 31 98 31 98 1f 18 00 18 00 00 18 18 1f f8     1.1.1...........
    3f44:	18 18 0f f0 00 00 00 00 00 00 00 00 1f 18 31 98     ..............1.
    3f54:	31 9e 31 98 31 98 1f 18 00 18 00 00 06 60 06 60     1.1.1........`.`
    3f64:	0f f0 39 9c 00 00 00 00 00 00 00 00 1f 18 31 98     ..9...........1.
    3f74:	31 9e 31 98 31 98 1f 18 00 18 00 00 0f f0 18 18     1.1.1...........
    3f84:	18 18 0f f0 00 00 00 00 00 00 00 00 1f 18 31 98     ..............1.
    3f94:	31 9e 31 98 31 98 1f 18 00 18 00 00 1f f8 06 60     1.1.1..........`
    3fa4:	06 60 1f f8 00 00 00 00 00 00 00 00 00 d8 1c d8     .`..............
    3fb4:	36 d8 36 d8 36 d8 36 f8 36 d8 36 d8 36 d8 36 d8     6.6.6.6.6.6.6.6.
    3fc4:	1c d8 00 d8 00 00 00 00 00 00 00 00 1c d8 36 d8     ..............6.
    3fd4:	36 d8 36 f8 36 d8 1c d8 00 18 00 00 1f f0 00 18     6.6.6...........
    3fe4:	00 18 00 18 00 00 00 00 00 00 00 00 1c d8 36 d8     ..............6.
    3ff4:	36 d8 36 f8 36 d8 1c d8 00 18 00 00 18 18 1f f8     6.6.6...........
    4004:	18 18 0f f0 00 00 00 00 00 00 00 00 00 18 1f 18     ................
    4014:	31 98 31 9e 31 98 31 98 31 98 31 9e 31 98 31 98     1.1.1.1.1.1.1.1.
    4024:	1f 18 00 18 00 00 00 00 00 00 00 00 1f 18 31 98     ..............1.
    4034:	31 9e 31 98 31 98 1f 1e 00 18 00 00 1f f0 00 18     1.1.1...........
    4044:	00 18 00 18 00 00 00 00 00 00 00 00 1f 18 31 98     ..............1.
    4054:	31 9e 31 98 31 98 1f 1e 00 18 00 00 0f f0 18 18     1.1.1...........
    4064:	18 18 0f f0 00 00 00 00 00 00 00 00 00 d8 1c d8     ................
    4074:	36 d8 36 f8 36 d8 36 d8 36 d8 36 f8 36 d8 36 d8     6.6.6.6.6.6.6.6.
    4084:	1c d8 00 d8 00 00 00 00 00 00 00 00 00 18 1f 18     ................
    4094:	31 98 31 98 31 98 31 f8 31 98 31 98 31 98 31 98     1.1.1.1.1.1.1.1.
    40a4:	1f 18 00 18 00 00 00 00 00 00 00 00 1f 18 31 98     ..............1.
    40b4:	31 f8 31 98 31 98 1f 18 00 18 00 00 1f f0 00 18     1.1.1...........
    40c4:	00 18 00 18 00 00 00 00 00 00 00 00 1f 18 31 98     ..............1.
    40d4:	31 f8 31 98 31 98 1f 18 00 18 00 18 18 18 18 00     1.1.1...........
    40e4:	18 00 0f f8 00 00 00 00 00 00 00 00 1f 18 31 98     ..............1.
    40f4:	31 f8 31 98 31 98 1f 18 00 18 00 00 0f f8 18 00     1.1.1...........
    4104:	18 00 0f f8 00 00 00 00 00 00 00 00 1f 18 31 98     ..............1.
    4114:	31 f8 31 98 1f 18 00 18 00 00 1f f0 00 18 0f f0     1.1.............
    4124:	18 00 0f f8 00 00 00 00 00 00 00 00 1f 18 31 98     ..............1.
    4134:	31 f8 31 98 31 98 1f 18 00 18 00 00 1f f8 18 18     1.1.1...........
    4144:	18 18 1f f8 00 00 00 00 00 00 00 00 1f 18 31 98     ..............1.
    4154:	31 f8 31 98 31 98 1f 18 00 18 00 00 18 18 1f f8     1.1.1...........
    4164:	18 18 0f f0 00 00 00 00 00 00 00 00 1f 18 31 98     ..............1.
    4174:	31 f8 31 98 31 98 1f 18 00 00 19 b0 19 b0 1f b0     1.1.1...........
    4184:	19 f8 0f cc 00 00 00 00 00 00 00 00 1f 18 31 98     ..............1.
    4194:	31 f8 31 98 31 98 1f 18 00 18 00 18 01 80 01 80     1.1.1...........
    41a4:	07 e0 1c 38 00 00 00 00 00 00 00 00 1f 18 31 98     ...8..........1.
    41b4:	31 f8 31 98 31 98 1f 18 00 18 00 00 06 60 06 60     1.1.1........`.`
    41c4:	0f f0 39 9c 00 00 00 00 00 00 00 00 00 d8 1c d8     ..9.............
    41d4:	36 d8 36 d8 36 d8 37 d8 36 d8 36 d8 36 d8 36 d8     6.6.6.7.6.6.6.6.
    41e4:	1c d8 00 d8 00 00 00 00 00 00 00 00 1c d8 36 d8     ..............6.
    41f4:	36 d8 37 d8 36 d8 36 d8 1c d8 00 d8 00 18 18 00     6.7.6.6.........
    4204:	18 00 0f f8 00 00 00 00 00 00 00 00 1c d8 36 d8     ..............6.
    4214:	37 d8 36 d8 36 d8 1c d8 00 00 1f f0 00 18 0f f0     7.6.6...........
    4224:	18 00 0f f8 00 00 00 00 00 00 00 00 00 18 1f 18     ................
    4234:	31 98 31 f8 31 98 31 98 31 98 31 f8 31 98 31 98     1.1.1.1.1.1.1.1.
    4244:	1f 18 00 18 00 00 00 00 00 00 00 00 1f 18 31 f8     ..............1.
    4254:	31 98 31 98 31 f8 1f 18 00 18 00 00 1f f0 00 18     1.1.1...........
    4264:	00 18 00 18 00 00 00 00 00 00 00 00 1f 18 31 f8     ..............1.
    4274:	31 98 31 98 31 f8 1f 18 00 18 00 18 18 18 18 00     1.1.1...........
    4284:	18 00 0f f8 00 00 00 00 00 00 00 00 1f 18 31 f8     ..............1.
    4294:	31 98 31 f8 1f 18 00 18 00 00 1f f0 00 18 0f f0     1.1.............
    42a4:	18 00 0f f8 00 00 00 00 00 00 00 00 1f 18 31 f8     ..............1.
    42b4:	31 98 31 f8 31 98 1f 18 00 18 00 00 18 18 1f f8     1.1.1...........
    42c4:	18 18 0f f0 00 00 00 00 00 00 00 00 1f 18 31 f8     ..............1.
    42d4:	31 98 31 f8 31 98 1f 18 00 18 00 00 06 60 06 60     1.1.1........`.`
    42e4:	0f f0 39 9c 00 00 00 00 00 00 00 00 1f 18 31 f8     ..9...........1.
    42f4:	31 98 31 f8 31 98 1f 18 00 18 00 00 0f f0 18 18     1.1.1...........
    4304:	18 18 0f f0 00 00 00 00 00 00 00 00 00 d8 1c d8     ................
    4314:	36 d8 37 d8 36 d8 36 d8 36 d8 37 d8 36 d8 36 d8     6.7.6.6.6.7.6.6.
    4324:	1c d8 00 d8 00 00 00 00 00 00 00 00 1c d8 37 d8     ..............7.
    4334:	36 d8 37 d8 36 d8 1c d8 00 18 00 18 01 80 01 80     6.7.6...........
    4344:	07 e0 1c 38 00 00 00 00 00 00 00 00 00 00 07 e0     ...8............
    4354:	0c 30 18 18 18 18 0c 30 07 e0 01 80 01 80 01 80     .0.....0........
    4364:	3f fc 00 00 00 00 00 00 00 00 00 00 0f f0 18 18     ?...............
    4374:	18 18 0f f0 01 80 01 80 3f fc 00 00 1f f0 00 18     ........?.......
    4384:	00 18 00 18 00 00 00 00 00 00 00 00 0f f0 18 18     ................
    4394:	18 18 0f f0 01 80 01 80 3f fc 00 00 00 00 18 00     ........?.......
    43a4:	18 00 0f f8 00 00 00 00 00 00 00 00 0f f0 18 18     ................
    43b4:	18 18 0f f0 01 80 3f fc 00 00 1f f0 00 18 0f f0     ......?.........
    43c4:	18 00 0f f8 00 00 00 00 00 00 00 00 0f f0 18 18     ................
    43d4:	18 18 0f f0 01 80 3f fc 00 00 1f f0 01 98 0f 18     ......?.........
    43e4:	18 18 0f 98 00 00 00 00 00 00 00 00 0f f0 18 18     ................
    43f4:	18 18 0f f0 01 80 3f fc 00 00 1f f8 01 d8 0f d8     ......?.........
    4404:	18 d8 0f f8 00 00 00 00 00 00 00 00 0f f0 18 18     ................
    4414:	18 18 0f f0 01 80 01 80 3f fc 00 00 0f f0 18 18     ........?.......
    4424:	18 18 0f f0 00 00 00 00 00 00 00 00 0f 18 19 98     ................
    4434:	30 d8 30 d8 19 98 0f 1e 06 18 06 18 06 18 3f f8     0.0...........?.
    4444:	00 18 00 18 00 00 00 00 00 00 00 00 1f 98 30 d8     ..............0.
    4454:	30 d8 1f 9e 06 18 06 18 3f f8 00 18 00 18 18 00     0.......?.......
    4464:	18 00 0f f8 00 00 00 00 00 00 00 00 1f 98 30 d8     ..............0.
    4474:	30 d8 1f 9e 06 18 06 18 3f f8 00 00 06 60 06 60     0.......?....`.`
    4484:	0f f0 39 9c 00 00 00 00 00 00 00 00 1e d8 33 d8     ..9...........3.
    4494:	33 d8 33 d8 33 d8 1e f8 0c d8 0c d8 0c d8 3f d8     3.3.3.........?.
    44a4:	00 d8 00 d8 00 00 00 00 00 00 00 00 0f 18 19 98     ................
    44b4:	30 d8 30 d8 19 98 0f 18 06 18 06 18 06 18 3f f8     0.0...........?.
    44c4:	00 18 00 18 00 00 00 00 00 00 00 00 0f cc 18 6c     ...............l
    44d4:	18 6c 0f cc 03 0c 03 0c 1f fc 00 0c 00 00 0c 00     .l..............
    44e4:	0c 00 07 fc 00 00 00 00 00 00 00 00 00 00 07 e0     ................
    44f4:	0c 30 18 18 18 18 0c 30 07 e0 06 60 06 60 06 60     .0.....0...`.`.`
    4504:	3f fc 00 00 00 00 00 00 00 00 00 00 0f f0 18 18     ?...............
    4514:	18 18 0f f0 06 60 06 60 3f fc 00 00 1f f0 00 18     .....`.`?.......
    4524:	00 18 00 18 00 00 00 00 00 00 00 00 0f f0 18 18     ................
    4534:	18 18 0f f0 06 60 06 60 3f fc 00 00 0f f0 18 18     .....`.`?.......
    4544:	18 18 0f f0 00 00 00 00 00 00 00 00 0f f0 18 18     ................
    4554:	18 18 18 18 0f f0 00 00 00 00 3f fc 01 80 01 80     ..........?.....
    4564:	01 80 01 80 00 00 00 00 00 00 00 00 0f f0 18 18     ................
    4574:	18 18 0f f0 00 00 3f fc 01 80 01 80 1f f0 00 18     ......?.........
    4584:	00 18 00 18 00 00 00 00 00 00 00 00 0f f0 18 18     ................
    4594:	18 18 0f f0 00 00 00 00 3f fc 01 80 01 80 19 80     ........?.......
    45a4:	18 00 0f f8 00 00 00 00 00 00 00 00 0f f0 18 18     ................
    45b4:	18 18 0f f0 00 00 3f fc 01 80 1f f0 00 18 0f f0     ......?.........
    45c4:	18 00 0f f8 00 00 00 00 00 00 00 00 0f f0 18 18     ................
    45d4:	18 18 0f f0 00 00 3f fc 01 80 01 80 1f f8 18 18     ......?.........
    45e4:	18 18 1f f8 00 00 00 00 00 00 00 00 0f f0 18 18     ................
    45f4:	18 18 0f f0 00 00 3f fc 01 80 01 80 0f f0 18 18     ......?.........
    4604:	18 18 0f f0 00 00 00 00 00 00 00 00 0f 98 18 d8     ................
    4614:	18 d8 18 d8 0f 98 00 18 3f f8 06 18 06 f8 06 18     ........?.......
    4624:	0c 18 00 18 00 00 00 00 00 00 00 00 1f 98 30 d8     ..............0.
    4634:	30 d8 1f 98 00 18 3f f8 06 18 06 f8 06 18 18 00     0.....?.........
    4644:	18 00 0f f8 00 00 00 00 00 00 00 00 0f 98 18 d8     ................
    4654:	18 f8 0f 98 00 18 3f f8 06 00 1f f0 00 18 0f f0     ......?.........
    4664:	18 00 0f f8 00 00 00 00 00 00 00 00 0f 98 18 d8     ................
    4674:	18 d8 0f 98 00 18 3f f8 06 78 00 00 06 60 06 60     ......?..x...`.`
    4684:	0f f0 39 9c 00 00 00 00 00 00 00 00 1e d8 33 d8     ..9...........3.
    4694:	33 d8 33 d8 1e d8 00 d8 3f d8 0c d8 0f d8 0c d8     3.3.....?.......
    46a4:	18 d8 00 d8 00 00 00 00 00 00 00 00 1e d8 33 d8     ..............3.
    46b4:	33 d8 1e d8 00 d8 3f d8 0d d8 0c 00 18 18 1f f8     3.....?.........
    46c4:	18 18 0f f0 00 00 00 00 00 00 00 00 0f 98 18 d8     ................
    46d4:	18 d8 18 d8 0f 98 00 18 3f f8 06 18 06 18 06 18     ........?.......
    46e4:	0c 18 00 18 00 00 00 00 00 00 00 00 0f 98 18 d8     ................
    46f4:	18 d8 0f 98 00 18 3f f8 06 18 1f f0 00 18 0f f0     ......?.........
    4704:	18 00 0f f8 00 00 00 00 00 00 00 00 0f f0 18 18     ................
    4714:	18 18 18 18 0f f0 00 00 00 00 3f fc 06 60 06 60     ..........?..`.`
    4724:	06 60 06 60 00 00 00 00 00 00 00 00 0f f0 18 18     .`.`............
    4734:	18 18 0f f0 00 00 3f fc 06 60 06 60 1f f0 00 18     ......?..`.`....
    4744:	00 18 00 18 00 00 00 00 00 00 00 00 0f f0 18 18     ................
    4754:	18 18 0f f0 00 00 00 00 3f fc 06 60 06 60 18 00     ........?..`.`..
    4764:	18 00 0f f8 00 00 00 00 00 00 00 00 0f f0 18 18     ................
    4774:	18 18 0f f0 00 00 3f fc 06 60 1f f0 00 18 0f f0     ......?..`......
    4784:	18 00 0f f8 00 00 00 00 00 00 00 00 0f f0 18 18     ................
    4794:	18 18 0f f0 00 00 3f fc 06 60 06 60 0f f0 18 18     ......?..`.`....
    47a4:	18 18 0f f0 00 00 00 00 00 00 00 00 00 00 07 e0     ................
    47b4:	0c 30 18 18 18 18 0c 30 07 e0 00 00 00 00 00 00     .0.....0........
    47c4:	3f fc 00 00 00 00 00 00 00 00 00 00 0f f0 18 18     ?...............
    47d4:	18 18 0f f0 00 00 00 00 3f fc 00 00 00 00 18 00     ........?.......
    47e4:	18 00 0f f8 00 00 00 00 00 00 00 00 0f f0 18 18     ................
    47f4:	18 18 0f f0 00 00 3f fc 00 00 1f f0 00 18 0f f0     ......?.........
    4804:	18 00 0f f8 00 00 00 00 00 00 00 00 0f f0 18 18     ................
    4814:	18 18 0f f0 00 00 3f fc 00 00 00 00 1f f8 18 18     ......?.........
    4824:	18 18 1f f8 00 00 00 00 00 00 00 00 0f f0 18 18     ................
    4834:	18 18 0f f0 00 00 3f fc 00 00 00 00 0f f0 18 18     ......?.........
    4844:	18 18 0f f0 00 00 00 00 00 00 00 00 0f 18 19 98     ................
    4854:	30 d8 30 d8 19 98 0f 18 00 18 00 18 00 18 3f f8     0.0...........?.
    4864:	00 18 00 18 00 00 00 00 00 00 00 00 00 18 1f 18     ................
    4874:	31 98 31 98 31 98 31 98 31 98 31 98 31 98 31 98     1.1.1.1.1.1.1.1.
    4884:	1f 18 00 18 00 00 00 00 00 00 00 00 1f 18 31 98     ..............1.
    4894:	31 98 31 98 31 98 1f 18 00 18 00 00 1f f0 00 18     1.1.1...........
    48a4:	00 18 00 18 00 00 00 00 00 00 00 00 1f 18 31 98     ..............1.
    48b4:	31 98 31 98 31 98 1f 18 00 18 00 18 00 18 18 00     1.1.1...........
    48c4:	18 00 0f f8 00 00 00 00 00 00 00 00 1f 18 31 98     ..............1.
    48d4:	31 98 31 98 1f 18 00 18 00 00 1f f0 00 18 0f f0     1.1.............
    48e4:	18 00 0f f8 00 00 00 00 00 00 00 00 1f 18 31 98     ..............1.
    48f4:	31 98 31 98 1f 18 00 18 00 00 1f f0 01 98 0f 18     1.1.............
    4904:	18 18 0f 98 00 00 00 00 00 00 00 00 1f 18 31 98     ..............1.
    4914:	31 98 31 98 1f 18 00 18 00 70 1f 00 01 fc 0f 70     1.1......p.....p
    4924:	18 d8 0f f0 00 00 00 00 00 00 00 00 1f 18 31 98     ..............1.
    4934:	31 98 31 98 31 98 1f 18 00 18 00 00 1f f8 18 18     1.1.1...........
    4944:	18 18 1f f8 00 00 00 00 00 00 00 00 1f 18 31 98     ..............1.
    4954:	31 98 31 98 31 98 1f 18 00 00 18 18 18 18 1f f8     1.1.1...........
    4964:	18 18 0f f0 00 00 00 00 00 00 00 00 1f 18 31 98     ..............1.
    4974:	31 98 31 98 31 98 1f 18 00 18 00 00 06 60 06 60     1.1.1........`.`
    4984:	0f f0 39 9c 00 00 00 00 00 00 00 00 1f 18 31 98     ..9...........1.
    4994:	31 98 31 98 31 98 1f 18 00 18 00 00 0f f0 18 18     1.1.1...........
    49a4:	18 18 0f f0 00 00 00 00 00 00 00 00 1f 18 31 98     ..............1.
    49b4:	31 98 31 98 31 98 1f 18 00 18 00 00 1f f8 01 80     1.1.1...........
    49c4:	07 e0 1c 38 00 00 00 00 00 00 00 00 00 18 3f d8     ...8..........?.
    49d4:	06 18 06 18 06 18 06 1e 0f 18 0f 18 19 98 19 98     ................
    49e4:	30 d8 00 18 00 00 00 00 00 00 00 00 3f d8 06 18     0...........?...
    49f4:	0e 1e 0f 18 19 98 30 d8 00 18 00 00 1f f0 00 18     ......0.........
    4a04:	00 18 00 18 00 00 00 00 00 00 00 00 3f d8 06 18     ............?...
    4a14:	06 18 0f 1e 0d 98 18 d8 30 18 00 18 00 18 18 00     ........0.......
    4a24:	18 00 0f f8 00 00 00 00 00 00 00 00 3f d8 06 18     ............?...
    4a34:	0e 1e 0f 18 19 98 30 d8 00 00 00 60 1b fc 18 f0     ......0....`....
    4a44:	19 98 0f f0 00 00 00 00 00 00 00 00 3f d8 06 18     ............?...
    4a54:	0e 1e 0f 18 19 98 30 d8 00 00 1f f0 00 18 0f f0     ......0.........
    4a64:	18 00 0f f8 00 00 00 00 00 00 00 00 3f d8 06 18     ............?...
    4a74:	0e 1e 0f 18 19 98 30 d8 00 18 00 00 1f f8 18 18     ......0.........
    4a84:	18 18 1f f8 00 00 00 00 00 00 00 00 3f d8 06 18     ............?...
    4a94:	0e 1e 0f 18 19 98 30 d8 00 18 00 00 18 18 1f f8     ......0.........
    4aa4:	18 18 0f f0 00 00 00 00 00 00 00 00 3f d8 06 18     ............?...
    4ab4:	0e 1e 0f 18 19 98 30 d8 00 18 00 00 0f f0 18 18     ......0.........
    4ac4:	18 18 0f f0 00 00 00 00 00 00 00 00 00 d8 3f d8     ..............?.
    4ad4:	0c d8 0c d8 0c d8 0c f8 0c d8 1e d8 1e d8 33 d8     ..............3.
    4ae4:	33 d8 00 d8 00 00 00 00 00 00 00 00 3f d8 0c d8     3...........?...
    4af4:	0c d8 1e f8 1e d8 33 d8 00 18 00 00 0f f0 18 18     ......3.........
    4b04:	18 18 0f f0 00 00 00 00 00 00 00 00 00 18 3f d8     ..............?.
    4b14:	06 18 06 18 06 18 06 f8 0f 18 0f 18 19 98 19 98     ................
    4b24:	30 d8 00 18 00 00 00 00 00 00 00 00 3f d8 06 18     0...........?...
    4b34:	0e f8 0f 18 19 98 30 d8 00 18 00 00 1f f0 00 18     ......0.........
    4b44:	00 18 00 18 00 00 00 00 00 00 00 00 3f d8 06 18     ............?...
    4b54:	06 18 06 f8 0f 18 0d 98 18 d8 30 18 00 18 18 00     ..........0.....
    4b64:	18 00 0f f8 00 00 00 00 00 00 00 00 3f d8 06 18     ............?...
    4b74:	0e f8 0f 18 19 98 30 d8 00 00 1f f0 00 18 0f f0     ......0.........
    4b84:	18 00 0f f8 00 00 00 00 00 00 00 00 3f d8 06 18     ............?...
    4b94:	0e f8 0f 18 19 98 30 d8 00 18 00 00 1f f8 18 18     ......0.........
    4ba4:	18 18 1f f8 00 00 00 00 00 00 00 00 3f d8 06 18     ............?...
    4bb4:	0e f8 0f 18 19 98 30 d8 00 18 00 00 18 18 1f f8     ......0.........
    4bc4:	18 18 0f f0 00 00 00 00 00 00 00 00 3f d8 06 18     ............?...
    4bd4:	0e f8 0f 18 19 98 30 d8 00 18 00 00 0f f0 18 18     ......0.........
    4be4:	18 18 0f f0 00 00 00 00 00 00 00 00 00 d8 3f d8     ..............?.
    4bf4:	0c d8 0c d8 0c d8 0f d8 0c d8 1e d8 1e d8 33 d8     ..............3.
    4c04:	33 d8 00 d8 00 00 00 00 00 00 00 00 3f d8 0c d8     3...........?...
    4c14:	0f d8 1e d8 1e d8 33 d8 00 18 00 00 1f f0 00 18     ......3.........
    4c24:	00 18 00 18 00 00 00 00 00 00 00 00 00 18 3f d8     ..............?.
    4c34:	06 18 06 f8 06 18 06 18 0f 18 0f f8 19 98 19 98     ................
    4c44:	30 d8 00 18 00 00 00 00 00 00 00 00 3f d8 06 78     0...........?..x
    4c54:	0e 18 0f 78 19 98 30 d8 00 18 00 00 06 60 06 60     ...x..0......`.`
    4c64:	0f f0 39 9c 00 00 00 00 00 00 00 00 00 00 1f f8     ..9.............
    4c74:	01 80 01 80 03 c0 06 60 1c 38 01 80 01 80 01 80     .......`.8......
    4c84:	3f fc 00 00 00 00 00 00 00 00 00 00 1f f8 03 c0     ?...............
    4c94:	06 60 1c 38 01 80 01 80 3f fc 00 00 1f f0 00 18     .`.8....?.......
    4ca4:	00 18 00 18 00 00 00 00 00 00 00 00 1f f8 01 80     ................
    4cb4:	07 e0 1c 38 01 80 01 80 3f fc 00 00 18 00 18 00     ...8....?.......
    4cc4:	18 00 0f f8 00 00 00 00 00 00 00 00 1f f8 01 80     ................
    4cd4:	07 e0 1c 38 01 80 01 80 3f fc 00 00 0f f0 18 18     ...8....?.......
    4ce4:	18 18 0f f0 00 00 00 00 00 00 00 00 1f f8 01 80     ................
    4cf4:	07 e0 1d b8 01 80 3f fc 00 00 01 80 1f f8 06 60     ......?........`
    4d04:	0c 30 07 e0 00 00 00 00 00 00 00 00 3f d8 06 18     .0..........?...
    4d14:	06 18 0e 18 0f 18 19 9e 36 d8 06 18 06 18 3f f8     ........6.....?.
    4d24:	00 18 00 18 00 00 00 00 00 00 00 00 3f d8 06 18     ............?...
    4d34:	06 18 0e 18 0f 18 19 98 36 d8 06 18 06 18 3f f8     ........6.....?.
    4d44:	00 18 00 18 00 00 00 00 00 00 00 00 1f f8 01 80     ................
    4d54:	03 c0 06 60 1c 38 00 00 00 00 3f fc 01 80 01 80     ...`.8....?.....
    4d64:	01 80 01 80 00 00 00 00 00 00 00 00 1f f8 03 c0     ................
    4d74:	06 60 1c 38 00 00 3f fc 01 80 01 80 1f f0 00 18     .`.8..?.........
    4d84:	00 18 00 18 00 00 00 00 00 00 00 00 1f f8 01 80     ................
    4d94:	03 c0 1e 78 00 00 00 00 3f fc 01 80 19 80 19 80     ...x....?.......
    4da4:	18 00 0f f8 00 00 00 00 00 00 00 00 1f f8 01 80     ................
    4db4:	07 e0 1c 38 00 00 3f fc 01 80 1f f0 00 18 0f f0     ...8..?.........
    4dc4:	18 00 0f f8 00 00 00 00 00 00 00 00 1f f8 03 c0     ................
    4dd4:	06 60 1c 38 00 00 3f fc 01 80 01 80 0f f0 18 18     .`.8..?.........
    4de4:	18 18 0f f0 00 00 00 00 00 00 00 00 00 00 1f f8     ................
    4df4:	01 80 01 80 03 c0 06 60 1c 38 00 00 00 00 00 00     .......`.8......
    4e04:	3f fc 00 00 00 00 00 00 00 00 00 00 1f f8 03 c0     ?...............
    4e14:	06 60 1c 38 00 00 3f fc 00 00 00 00 1f f0 00 18     .`.8..?.........
    4e24:	00 18 00 18 00 00 00 00 00 00 00 00 1f f8 01 80     ................
    4e34:	07 e0 1c 38 00 00 00 00 3f fc 00 00 00 00 18 00     ...8....?.......
    4e44:	18 00 0f f8 00 00 00 00 00 00 00 00 1f f8 01 80     ................
    4e54:	07 e0 1c 38 00 00 3f fc 00 00 1f f0 00 18 0f f0     ...8..?.........
    4e64:	18 00 0f f8 00 00 00 00 00 00 00 00 1f f8 03 c0     ................
    4e74:	06 60 1c 38 00 00 3f fc 00 00 00 00 1f f8 18 18     .`.8..?.........
    4e84:	18 18 1f f8 00 00 00 00 00 00 00 00 1f f8 03 c0     ................
    4e94:	06 60 1c 38 00 00 3f fc 00 00 00 00 0f f0 18 18     .`.8..?.........
    4ea4:	18 18 0f f0 00 00 00 00 00 00 00 00 00 18 3f d8     ..............?.
    4eb4:	06 18 06 18 06 18 06 18 0f 18 0f 18 19 98 19 98     ................
    4ec4:	30 d8 00 18 00 00 00 00 00 00 00 00 3f d8 06 18     0...........?...
    4ed4:	0e 18 0f 18 19 98 30 d8 00 18 00 00 1f f0 00 18     ......0.........
    4ee4:	00 18 00 18 00 00 00 00 00 00 00 00 3f d8 06 18     ............?...
    4ef4:	06 18 0f 18 0d 98 18 d8 30 18 00 18 00 18 18 00     ........0.......
    4f04:	18 00 0f f8 00 00 00 00 00 00 00 00 3f d8 06 18     ............?...
    4f14:	0e 18 0f 18 19 98 30 d8 00 00 1f f0 00 18 0f f0     ......0.........
    4f24:	18 00 0f f8 00 00 00 00 00 00 00 00 3f d8 06 18     ............?...
    4f34:	0e 18 0f 18 19 98 30 d8 00 18 00 00 1f f8 18 18     ......0.........
    4f44:	18 18 1f f8 00 00 00 00 00 00 00 00 3f d8 06 18     ............?...
    4f54:	0e 18 0f 18 19 98 30 d8 00 18 00 00 18 18 1f f8     ......0.........
    4f64:	18 18 0f f0 00 00 00 00 00 00 00 00 3f d8 06 18     ............?...
    4f74:	0e 18 0f 18 19 98 30 d8 00 18 00 18 01 80 01 80     ......0.........
    4f84:	07 e0 1c 38 00 00 00 00 00 00 00 00 3f d8 06 18     ...8........?...
    4f94:	0e 18 0f 18 19 98 30 d8 00 18 00 00 0f f0 18 18     ......0.........
    4fa4:	18 18 0f f0 00 00 00 00 00 00 00 00 00 18 3f f8     ..............?.
    4fb4:	0d 98 0d 98 0d 98 0d 9e 0d 98 1f d8 1b d8 36 78     ..............6x
    4fc4:	36 78 00 18 00 00 00 00 00 00 00 00 00 d8 3f d8     6x............?.
    4fd4:	1e d8 1e d8 1e d8 1e f8 1e d8 3e d8 3f d8 3f d8     ..........>.?.?.
    4fe4:	3f d8 00 d8 00 00 00 00 00 00 00 00 3f d8 1e d8     ?...........?...
    4ff4:	1e d8 3e f8 3f d8 3f d8 00 18 00 00 06 60 06 60     ..>.?.?......`.`
    5004:	0f f0 39 9c 00 00 00 00 00 00 00 00 00 18 3f f8     ..9...........?.
    5014:	0d 98 0d 98 0d 98 0d f8 0d 98 1f d8 1b d8 36 78     ..............6x
    5024:	36 78 00 18 00 00 00 00 00 00 00 00 1f f8 06 60     6x.............`
    5034:	0f f0 19 98 01 80 01 80 3f fc 00 00 1f f0 00 18     ........?.......
    5044:	00 18 00 18 00 00 00 00 00 00 00 00 1f f8 06 60     ...............`
    5054:	0f f0 19 98 00 00 3f fc 00 00 00 00 1f f8 18 18     ......?.........
    5064:	18 18 1f f8 00 00 00 00 00 00 00 00 3f f8 0d 98     ............?...
    5074:	0d 98 1f d8 1b d8 36 78 00 18 00 00 1f f0 00 18     ......6x........
    5084:	00 18 00 18 00 00 00 00 00 00 00 00 00 18 0f 18     ................
    5094:	00 18 3f d8 06 18 06 1e 06 18 0f 18 0f 18 19 98     ..?.............
    50a4:	30 d8 00 18 00 00 00 00 00 00 00 00 0f 18 00 18     0...............
    50b4:	3f de 06 18 0f 18 39 d8 00 18 00 00 1f f0 00 18     ?.....9.........
    50c4:	00 18 00 18 00 00 00 00 00 00 00 00 0f 18 00 18     ................
    50d4:	3f d8 06 1e 06 18 0f 18 19 98 30 d8 00 18 18 00     ?.........0.....
    50e4:	18 00 0f f8 00 00 00 00 00 00 00 00 0f 18 00 18     ................
    50f4:	3f de 06 18 0f 18 39 d8 00 00 1f f0 00 18 0f f0     ?.....9.........
    5104:	18 00 0f f8 00 00 00 00 00 00 00 00 0f 18 00 18     ................
    5114:	3f de 06 18 0f 18 39 d8 00 18 00 00 1f f8 18 18     ?.....9.........
    5124:	18 18 1f f8 00 00 00 00 00 00 00 00 0f 18 00 18     ................
    5134:	3f de 06 18 0f 18 39 d8 00 18 00 00 0f f0 18 18     ?.....9.........
    5144:	18 18 0f f0 00 00 00 00 00 00 00 00 0f 18 00 18     ................
    5154:	3f de 06 18 0f 18 39 d8 00 18 00 00 1f f8 01 80     ?.....9.........
    5164:	07 e0 1c 38 00 00 00 00 00 00 00 00 00 d8 1e d8     ...8............
    5174:	00 d8 3f d8 0c d8 0c f8 0c d8 0c d8 1e d8 1e d8     ..?.............
    5184:	33 d8 00 d8 00 00 00 00 00 00 00 00 1e d8 00 d8     3...............
    5194:	3f d8 0c f8 0c d8 1e d8 33 18 00 00 1f f0 00 18     ?.......3.......
    51a4:	00 18 00 18 00 00 00 00 00 00 00 00 1e d8 00 d8     ................
    51b4:	3f d8 0c d8 0c f8 0c d8 1e d8 33 d8 00 18 18 00     ?.........3.....
    51c4:	18 00 0f f8 00 00 00 00 00 00 00 00 00 18 0f 18     ................
    51d4:	00 18 3f d8 06 18 06 18 06 f8 0f 18 0f 18 19 98     ..?.............
    51e4:	30 d8 00 18 00 00 00 00 00 00 00 00 0f 18 00 18     0...............
    51f4:	3f d8 06 18 06 78 0f 18 19 98 30 d8 00 18 18 00     ?....x....0.....
    5204:	18 00 0f f8 00 00 00 00 00 00 00 00 0f 18 00 18     ................
    5214:	3f 98 06 78 0f 18 39 d8 00 00 1f f0 00 18 0f f0     ?..x..9.........
    5224:	18 00 0f f8 00 00 00 00 00 00 00 00 0f 18 00 18     ................
    5234:	3f 98 06 78 0f 18 39 d8 00 18 00 00 1f f8 18 18     ?..x..9.........
    5244:	18 18 1f f8 00 00 00 00 00 00 00 00 0f 18 00 18     ................
    5254:	3f d8 06 18 06 78 0f 18 39 d8 00 18 01 80 01 80     ?....x..9.......
    5264:	07 e0 1c 38 00 00 00 00 00 00 00 00 0f 18 00 18     ...8............
    5274:	3f 98 06 78 0f 18 39 d8 00 18 00 00 0f f0 18 18     ?..x..9.........
    5284:	18 18 0f f0 00 00 00 00 00 00 00 00 1e d8 00 d8     ................
    5294:	00 d8 3f d8 0c d8 0c d8 0f d8 0c d8 1e d8 1e d8     ..?.............
    52a4:	33 d8 00 d8 00 00 00 00 00 00 00 00 00 18 0f 18     3...............
    52b4:	00 18 3f d8 06 18 06 f8 06 18 0f 18 0f f8 19 98     ..?.............
    52c4:	30 d8 00 18 00 00 00 00 00 00 00 00 0f 18 00 18     0...............
    52d4:	3f f8 06 18 0f 78 39 d8 00 18 00 00 06 60 06 60     ?....x9......`.`
    52e4:	0f f0 39 9c 00 00 00 00 00 00 00 00 03 c0 00 00     ..9.............
    52f4:	1f f8 01 80 03 c0 06 60 1c 38 01 80 01 80 01 80     .......`.8......
    5304:	3f fc 00 00 00 00 00 00 00 00 00 00 03 c0 00 00     ?...............
    5314:	1f f8 03 c0 1e 78 01 80 01 80 3f fc 00 00 18 00     .....x....?.....
    5324:	18 00 0f f8 00 00 00 00 00 00 00 00 03 c0 00 00     ................
    5334:	1f f8 03 c0 1e 78 01 80 3f fc 00 00 0f f0 18 18     .....x..?.......
    5344:	18 18 0f f0 00 00 00 00 00 00 00 00 0f 18 00 18     ................
    5354:	3f d8 06 18 06 18 0f 18 39 d8 06 18 06 18 06 18     ?.......9.......
    5364:	3f f8 00 18 00 00 00 00 00 00 00 00 03 c0 00 00     ?...............
    5374:	1f f8 01 80 03 c0 06 60 1c 38 00 00 3f fc 01 80     .......`.8..?...
    5384:	01 80 01 80 00 00 00 00 00 00 00 00 03 c0 00 00     ................
    5394:	1f f8 03 c0 1e 78 00 00 3f fc 01 80 1f f0 00 18     .....x..?.......
    53a4:	00 18 00 18 00 00 00 00 00 00 00 00 03 c0 00 00     ................
    53b4:	1f f8 03 c0 1e 78 00 00 3f fc 01 80 01 80 19 80     .....x..?.......
    53c4:	18 00 0f f8 00 00 00 00 00 00 00 00 01 80 1f f8     ................
    53d4:	03 c0 1e 78 00 00 3f fc 01 80 1f f0 00 18 0f f0     ...x..?.........
    53e4:	18 00 0f f8 00 00 00 00 00 00 00 00 03 c0 00 00     ................
    53f4:	1f f8 03 c0 1e 78 00 00 3f fc 01 80 0f f0 18 18     .....x..?.......
    5404:	18 18 0f f0 00 00 00 00 00 00 00 00 0f 18 00 18     ................
    5414:	3f d8 06 18 0f 18 39 d8 00 18 3f f8 06 18 06 f8     ?.....9...?.....
    5424:	06 18 0c 18 00 00 00 00 00 00 00 00 0f 18 00 18     ................
    5434:	3f d8 06 18 0f 18 39 d8 00 18 3f f8 06 18 06 18     ?.....9...?.....
    5444:	06 18 0c 18 00 00 00 00 00 00 00 00 03 c0 00 00     ................
    5454:	1f f8 01 80 03 c0 06 60 1c 38 00 00 00 00 00 00     .......`.8......
    5464:	3f fc 00 00 00 00 00 00 00 00 00 00 03 c0 00 00     ?...............
    5474:	1f f8 03 c0 1e 78 00 00 3f fc 00 00 1f f0 00 18     .....x..?.......
    5484:	00 18 00 18 00 00 00 00 00 00 00 00 03 c0 00 00     ................
    5494:	1f f8 03 c0 1e 78 00 00 3f fc 00 00 0f f0 18 18     .....x..?.......
    54a4:	18 18 0f f0 00 00 00 00 00 00 00 00 00 18 0f 18     ................
    54b4:	00 18 3f d8 06 18 06 18 06 18 0f 18 0f 18 19 98     ..?.............
    54c4:	30 d8 00 18 00 00 00 00 00 00 00 00 0f 18 00 18     0...............
    54d4:	3f d8 06 18 0f 18 39 d8 00 18 00 00 1f f0 00 18     ?.....9.........
    54e4:	00 18 00 18 00 00 00 00 00 00 00 00 0f 18 00 18     ................
    54f4:	3f d8 06 18 06 18 0f 18 19 98 30 d8 00 18 18 00     ?.........0.....
    5504:	18 00 0f f8 00 00 00 00 00 00 00 00 0f 18 00 18     ................
    5514:	3f d8 06 18 0f 18 39 d8 00 00 1f f0 00 18 0f f0     ?.....9.........
    5524:	18 00 0f f8 00 00 00 00 00 00 00 00 0f 18 00 18     ................
    5534:	3f d8 06 18 0f 18 39 d8 00 18 00 00 1f f8 18 18     ?.....9.........
    5544:	18 18 1f f8 00 00 00 00 00 00 00 00 0f 18 00 18     ................
    5554:	3f d8 06 18 0f 18 39 d8 00 18 00 00 18 18 1f f8     ?.....9.........
    5564:	18 18 0f f0 00 00 00 00 00 00 00 00 0f 18 00 18     ................
    5574:	3f d8 06 18 0f 18 39 d8 00 18 00 18 01 80 01 80     ?.....9.........
    5584:	07 e0 1c 38 00 00 00 00 00 00 00 00 0f 18 00 18     ...8............
    5594:	3f d8 06 18 0f 18 39 d8 00 18 00 00 0f f0 18 18     ?.....9.........
    55a4:	18 18 0f f0 00 00 00 00 00 00 00 00 00 18 3f 18     ..............?.
    55b4:	01 98 01 98 01 98 3f 9e 03 18 03 18 06 18 0c 18     ......?.........
    55c4:	38 18 00 18 00 00 00 00 00 00 00 00 3f 18 01 98     8...........?...
    55d4:	3f 9e 01 98 07 18 3c 18 00 00 1f f0 00 18 0f f0     ?.....<.........
    55e4:	18 00 0f f8 00 00 00 00 00 00 00 00 00 d8 3c d8     ..............<.
    55f4:	06 d8 06 d8 06 d8 3e f8 06 d8 06 d8 0c d8 0c d8     ......>.........
    5604:	38 d8 00 d8 00 00 00 00 00 00 00 00 00 18 3f 18     8.............?.
    5614:	01 98 01 98 01 f8 3f 98 03 18 03 18 06 18 0c 18     ......?.........
    5624:	38 18 00 18 00 00 00 00 00 00 00 00 3f 18 01 98     8...........?...
    5634:	01 98 3f f8 03 18 06 18 3c 18 00 18 00 18 18 00     ..?.....<.......
    5644:	18 00 0f f8 00 00 00 00 00 00 00 00 3f 18 01 98     ............?...
    5654:	01 98 3f f8 03 18 0e 18 38 18 00 00 1f f8 18 18     ..?.....8.......
    5664:	18 18 1f f8 00 00 00 00 00 00 00 00 00 d8 3c d8     ..............<.
    5674:	06 d8 06 d8 06 d8 3f d8 06 d8 06 d8 0c d8 0c d8     ......?.........
    5684:	38 d8 00 d8 00 00 00 00 00 00 00 00 00 18 3f 18     8.............?.
    5694:	01 98 01 f8 01 98 3f 98 03 18 03 f8 06 18 0c 18     ......?.........
    56a4:	38 18 00 18 00 00 00 00 00 00 00 00 3f 18 01 f8     8...........?...
    56b4:	01 98 3f 98 03 f8 0e 18 38 18 00 00 06 60 06 60     ..?.....8....`.`
    56c4:	0f f0 39 9c 00 00 00 00 00 00 00 00 00 00 1f f0     ..9.............
    56d4:	00 18 00 18 00 18 1f f8 03 18 03 18 03 30 03 00     .............0..
    56e4:	3f fc 00 00 00 00 00 00 00 00 00 00 1f f0 00 18     ?...............
    56f4:	1f f8 03 18 03 30 03 00 3f fc 00 00 00 00 18 00     .....0..?.......
    5704:	18 00 0f f8 00 00 00 00 00 00 00 00 00 00 1f f0     ................
    5714:	00 18 00 18 00 18 1f f8 06 d8 06 d8 06 f0 06 c0     ................
    5724:	3f fc 00 00 00 00 00 00 00 00 00 00 1f f0 00 18     ?...............
    5734:	00 18 1f f8 00 18 00 30 3f fc 01 80 01 80 01 80     .......0?.......
    5744:	01 80 01 80 00 00 00 00 00 00 00 00 3f 98 00 d8     ............?...
    5754:	3f d8 00 d8 3f f8 06 78 06 18 1f f0 00 18 0f f0     ?...?..x........
    5764:	18 00 0f f8 00 00 00 00 00 00 00 00 3f 98 00 d8     ............?...
    5774:	3f d8 00 d8 01 98 3f f8 06 18 06 18 06 18 18 00     ?.....?.........
    5784:	18 00 0f f8 00 00 00 00 00 00 00 00 1f f0 00 18     ................
    5794:	00 18 1f f8 00 18 00 30 3f fc 06 30 06 30 06 30     .......0?..0.0.0
    57a4:	06 30 06 30 00 00 00 00 00 00 00 00 00 00 1f f0     .0.0............
    57b4:	00 18 00 18 00 18 1f f8 00 18 00 18 00 30 00 00     .............0..
    57c4:	3f fc 00 00 00 00 00 00 00 00 00 00 1f f0 00 18     ?...............
    57d4:	00 18 1f f8 00 18 00 30 3f fc 00 00 18 00 18 00     .......0?.......
    57e4:	18 00 0f f8 00 00 00 00 00 00 00 00 1f f0 00 18     ................
    57f4:	1f f8 00 18 00 30 3f fc 00 00 1f f0 00 18 0f f0     .....0?.........
    5804:	18 00 0f f8 00 00 00 00 00 00 00 00 1f f0 00 18     ................
    5814:	1f f8 00 18 00 30 3f fc 00 00 00 00 1f f8 18 18     .....0?.........
    5824:	18 18 1f f8 00 00 00 00 00 00 00 00 00 18 3f 18     ..............?.
    5834:	01 98 01 98 01 98 3f 98 03 18 03 18 06 18 0c 18     ......?.........
    5844:	38 18 00 18 00 00 00 00 00 00 00 00 3f 18 01 98     8...........?...
    5854:	01 98 3f 98 03 18 06 18 3c 18 00 18 00 18 18 00     ..?.....<.......
    5864:	18 00 0f f8 00 00 00 00 00 00 00 00 3f 18 01 98     ............?...
    5874:	01 98 3f 98 03 18 0e 18 38 18 00 18 01 80 01 80     ..?.....8.......
    5884:	07 e0 1c 38 00 00 00 00 00 00 00 00 00 18 1f d8     ...8............
    5894:	30 18 30 18 30 18 3f 9e 30 18 30 18 30 18 30 18     0.0.0.?.0.0.0.0.
    58a4:	1f f8 00 18 00 00 00 00 00 00 00 00 1f d8 30 18     ..............0.
    58b4:	3f de 30 18 30 18 1f f8 00 18 00 00 1f f0 00 18     ?.0.0...........
    58c4:	00 18 00 18 00 00 00 00 00 00 00 00 1f d8 30 18     ..............0.
    58d4:	30 18 3f de 30 18 30 18 1f f8 00 18 00 18 18 00     0.?.0.0.........
    58e4:	18 00 0f f8 00 00 00 00 00 00 00 00 1f d8 30 18     ..............0.
    58f4:	3f de 30 18 30 18 1f f8 00 00 1f f0 00 18 0f f0     ?.0.0...........
    5904:	18 00 0f f8 00 00 00 00 00 00 00 00 1f d8 30 18     ..............0.
    5914:	3f de 30 18 30 18 1f f8 00 18 00 00 1f f8 18 18     ?.0.0...........
    5924:	18 18 1f f8 00 00 00 00 00 00 00 00 1f d8 30 18     ..............0.
    5934:	3f de 30 18 30 18 1f f8 00 18 00 00 18 18 1f f8     ?.0.0...........
    5944:	18 18 0f f0 00 00 00 00 00 00 00 00 1f d8 30 18     ..............0.
    5954:	3f de 30 18 30 18 1f f8 00 18 00 00 0f f0 18 18     ?.0.0...........
    5964:	18 18 0f f0 00 00 00 00 00 00 00 00 00 d8 1f d8     ................
    5974:	30 d8 30 d8 30 d8 3e f8 30 d8 30 d8 30 d8 30 d8     0.0.0.>.0.0.0.0.
    5984:	1f d8 00 d8 00 00 00 00 00 00 00 00 1f d8 30 d8     ..............0.
    5994:	3f d8 30 f8 30 d8 1f d8 00 18 00 00 1f f0 00 18     ?.0.0...........
    59a4:	00 18 00 18 00 00 00 00 00 00 00 00 00 18 1f 98     ................
    59b4:	30 18 30 18 30 18 3f 78 30 18 30 18 30 18 30 18     0.0.0.?x0.0.0.0.
    59c4:	1f f8 00 18 00 00 00 00 00 00 00 00 1f d8 30 18     ..............0.
    59d4:	30 18 3f f8 30 18 30 18 1f f8 00 18 00 18 18 00     0.?.0.0.........
    59e4:	18 00 0f f8 00 00 00 00 00 00 00 00 1f 98 30 18     ..............0.
    59f4:	3f f8 30 18 30 18 1f d8 00 00 1f f0 00 18 0f f0     ?.0.0...........
    5a04:	18 00 0f f8 00 00 00 00 00 00 00 00 1f 98 30 18     ..............0.
    5a14:	3f f8 30 18 30 18 1f d8 00 18 00 00 1f f8 18 18     ?.0.0...........
    5a24:	18 18 1f f8 00 00 00 00 00 00 00 00 1f 98 30 18     ..............0.
    5a34:	3f f8 30 18 30 18 1f d8 00 18 00 00 0f f0 18 18     ?.0.0...........
    5a44:	18 18 0f f0 00 00 00 00 00 00 00 00 00 d8 1e d8     ................
    5a54:	30 d8 30 d8 30 d8 3f d8 30 d8 30 d8 30 d8 30 d8     0.0.0.?.0.0.0.0.
    5a64:	1f d8 00 d8 00 00 00 00 00 00 00 00 1e d8 30 d8     ..............0.
    5a74:	3f d8 30 d8 30 d8 1f d8 00 18 00 00 1f f0 00 18     ?.0.0...........
    5a84:	00 18 00 18 00 00 00 00 00 00 00 00 1e d8 30 d8     ..............0.
    5a94:	30 d8 3f d8 30 d8 30 d8 1f d8 00 d8 00 18 18 00     0.?.0.0.........
    5aa4:	18 00 0f f8 00 00 00 00 00 00 00 00 1e d8 30 d8     ..............0.
    5ab4:	3f d8 30 d8 30 d8 1f d8 00 00 1f f0 00 18 0f f0     ?.0.0...........
    5ac4:	18 00 0f f8 00 00 00 00 00 00 00 00 1e d8 30 d8     ..............0.
    5ad4:	3f d8 30 d8 30 d8 1f d8 00 18 00 00 1f f8 18 18     ?.0.0...........
    5ae4:	18 18 1f f8 00 00 00 00 00 00 00 00 00 00 0f f8     ................
    5af4:	18 00 18 00 1f f8 18 00 18 00 0f f8 01 80 01 80     ................
    5b04:	3f fc 00 00 00 00 00 00 00 00 00 00 0f f8 18 00     ?...............
    5b14:	1f f8 18 00 0f f8 01 80 3f fc 00 00 0f f0 18 18     ........?.......
    5b24:	18 18 0f f0 00 00 00 00 00 00 00 00 1f d8 30 18     ..............0.
    5b34:	30 18 3f d8 30 18 30 18 1f d8 06 18 06 18 3f f8     0.?.0.0.......?.
    5b44:	00 18 00 18 00 00 00 00 00 00 00 00 0f f8 18 00     ................
    5b54:	1f f8 18 00 18 00 0f f8 00 00 3f fc 01 80 01 80     ..........?.....
    5b64:	01 80 01 80 00 00 00 00 00 00 00 00 00 00 0f f8     ................
    5b74:	18 00 18 00 1f f8 18 00 18 00 0f f8 00 00 00 00     ................
    5b84:	3f fc 00 00 00 00 00 00 00 00 00 00 0f f8 18 00     ?...............
    5b94:	1f f8 18 00 0f f8 00 00 3f fc 00 00 1f f0 00 18     ........?.......
    5ba4:	00 18 00 18 00 00 00 00 00 00 00 00 00 18 1f 98     ................
    5bb4:	30 18 30 18 30 18 3f 98 30 18 30 18 30 18 30 18     0.0.0.?.0.0.0.0.
    5bc4:	1f f8 00 18 00 00 00 00 00 00 00 00 1f d8 30 18     ..............0.
    5bd4:	3f d8 30 18 30 18 1f f8 00 18 00 00 1f f0 00 18     ?.0.0...........
    5be4:	00 18 00 18 00 00 00 00 00 00 00 00 1f d8 30 18     ..............0.
    5bf4:	30 18 3f 98 30 18 30 18 1f f8 00 18 00 18 18 00     0.?.0.0.........
    5c04:	18 00 0f f8 00 00 00 00 00 00 00 00 1f d8 30 18     ..............0.
    5c14:	3f d8 30 18 30 18 1f f8 00 18 00 00 1f f8 18 18     ?.0.0...........
    5c24:	18 18 1f f8 00 00 00 00 00 00 00 00 1f d8 30 18     ..............0.
    5c34:	3f d8 30 18 30 18 1f f8 00 18 00 00 0f f0 18 18     ?.0.0...........
    5c44:	18 18 0f f0 00 00 00 00 00 00 00 00 00 18 3f f8     ..............?.
    5c54:	00 18 0d 98 0d 98 0d 9e 0d 98 0d 98 0d 98 0d 98     ................
    5c64:	3f f8 00 18 00 00 00 00 00 00 00 00 3f f8 0d 98     ?...........?...
    5c74:	0d 9e 0d 98 0d 98 3f f8 00 18 00 00 1e f0 03 18     ......?.........
    5c84:	03 18 03 18 00 00 00 00 00 00 00 00 3f f8 0d 98     ............?...
    5c94:	0d 98 0d 9e 0d 98 0d 98 3f f8 00 18 00 18 18 00     ........?.......
    5ca4:	18 00 0f f8 00 00 00 00 00 00 00 00 3f f8 0d 98     ............?...
    5cb4:	0d 9e 0d 98 0d 98 3f f8 00 18 00 00 0f f0 18 18     ......?.........
    5cc4:	18 18 0f f0 00 00 00 00 00 00 00 00 00 d8 3f d8     ..............?.
    5cd4:	00 d8 1e d8 1e d8 1e f8 1e d8 1e d8 1e d8 1e d8     ................
    5ce4:	3f d8 00 d8 00 00 00 00 00 00 00 00 3f d8 1e d8     ?...........?...
    5cf4:	1e d8 1e d8 1e f8 1e d8 3f d8 00 d8 00 18 18 00     ........?.......
    5d04:	18 00 0f f8 00 00 00 00 00 00 00 00 00 18 3f d8     ..............?.
    5d14:	00 18 1b 18 1b 18 1b f8 1b 18 1b 18 1b 18 1b 18     ................
    5d24:	3f d8 00 18 00 00 00 00 00 00 00 00 3f d8 1b 18     ?...........?...
    5d34:	1b f8 1b 18 1b 18 3f d8 00 00 1f f0 00 18 0f f0     ......?.........
    5d44:	18 00 0f f8 00 00 00 00 00 00 00 00 00 d8 3f d8     ..............?.
    5d54:	00 d8 1e d8 1e d8 1f d8 1e d8 1e d8 1e d8 1e d8     ................
    5d64:	3f d8 00 d8 00 00 00 00 00 00 00 00 00 18 3f d8     ?.............?.
    5d74:	00 18 1b f8 1b 18 1b 18 1b 18 1b f8 1b 18 1b 18     ................
    5d84:	3f d8 00 18 00 00 00 00 00 00 00 00 3f d8 1b 18     ?...........?...
    5d94:	1b 78 1b 18 1b 78 1b 18 3f d8 00 18 00 18 18 00     .x...x..?.......
    5da4:	18 00 0f f8 00 00 00 00 00 00 00 00 3f d8 1b 78     ............?..x
    5db4:	1b 18 1b 78 1b 18 3f d8 00 18 00 00 0f f0 18 18     ...x..?.........
    5dc4:	18 18 0f f0 00 00 00 00 00 00 00 00 00 d8 3f d8     ..............?.
    5dd4:	00 d8 1f d8 1e d8 1e d8 1e d8 1f d8 1e d8 1e d8     ................
    5de4:	3f d8 00 d8 00 00 00 00 00 00 00 00 00 00 1f f8     ?...............
    5df4:	06 60 06 60 06 60 06 60 1f f8 01 80 01 80 01 80     .`.`.`.`........
    5e04:	3f fc 00 00 00 00 00 00 00 00 00 00 1f f8 06 60     ?..............`
    5e14:	06 60 1f f8 01 80 01 80 3f fc 00 00 1f f0 00 18     .`......?.......
    5e24:	00 18 00 18 00 00 00 00 00 00 00 00 1f f8 06 60     ...............`
    5e34:	06 60 1f f8 01 80 01 80 3f fc 00 00 00 00 18 00     .`......?.......
    5e44:	18 00 0f f8 00 00 00 00 00 00 00 00 1f f8 06 60     ...............`
    5e54:	06 60 1f f8 01 80 3f fc 00 00 1f f0 00 18 0f f0     .`....?.........
    5e64:	18 00 0f f8 00 00 00 00 00 00 00 00 00 00 1f f8     ................
    5e74:	06 60 06 60 06 60 06 60 1f f8 06 60 06 60 06 60     .`.`.`.`...`.`.`
    5e84:	3f fc 00 00 00 00 00 00 00 00 00 00 1f f8 06 60     ?..............`
    5e94:	06 60 06 60 1f f8 00 00 00 00 3f fc 01 80 01 80     .`.`......?.....
    5ea4:	01 80 01 80 00 00 00 00 00 00 00 00 1f f8 06 60     ...............`
    5eb4:	06 60 1f f8 00 00 3f fc 01 80 1f f0 00 18 0f f0     .`....?.........
    5ec4:	18 00 0f f8 00 00 00 00 00 00 00 00 1f f8 06 60     ...............`
    5ed4:	06 60 1f f8 00 00 3f fc 01 80 01 80 1f f8 18 18     .`....?.........
    5ee4:	18 18 1f f8 00 00 00 00 00 00 00 00 1f f8 06 60     ...............`
    5ef4:	06 60 1f f8 00 00 3f fc 01 80 01 80 0f f0 18 18     .`....?.........
    5f04:	18 18 0f f0 00 00 00 00 00 00 00 00 1f f8 06 60     ...............`
    5f14:	06 60 06 60 1f f8 00 00 00 00 3f fc 06 60 06 60     .`.`......?..`.`
    5f24:	06 60 06 60 00 00 00 00 00 00 00 00 00 00 1f f8     .`.`............
    5f34:	06 60 06 60 06 60 06 60 1f f8 00 00 00 00 00 00     .`.`.`.`........
    5f44:	3f fc 00 00 00 00 00 00 00 00 00 00 1f f8 06 60     ?..............`
    5f54:	06 60 1f f8 00 00 3f fc 00 00 1f f0 00 18 0f f0     .`....?.........
    5f64:	18 00 0f f8 00 00 00 00 00 00 00 00 00 18 3f f8     ..............?.
    5f74:	00 18 0d 98 0d 98 0d 98 0d 98 0d 98 0d 98 0d 98     ................
    5f84:	3f f8 00 18 00 00 00 00 00 00 00 00 3f f8 0d 98     ?...........?...
    5f94:	0d 98 0d 98 0d 98 0d 98 3f f8 00 18 00 18 18 00     ........?.......
    5fa4:	18 00 0f f8 00 00 00 00 00 00 00 00 3f f8 0d 98     ............?...
    5fb4:	0d 98 0d 98 3f f8 00 18 00 00 1f f0 00 18 0f f0     ....?...........
    5fc4:	18 00 0f f8 00 00 00 00 00 00 00 00 3f f8 0d 98     ............?...
    5fd4:	0d 98 0d 98 0d 98 3f f8 00 18 00 00 0f f0 18 18     ......?.........
    5fe4:	18 18 0f f0 00 00 00 00 00 00 00 00 00 18 0f 18     ................
    5ff4:	00 18 3f d8 00 18 0f 1e 19 98 19 98 19 98 19 98     ..?.............
    6004:	0f 18 00 18 00 00 00 00 00 00 00 00 0f 18 00 18     ................
    6014:	3f de 0f 18 19 98 19 98 0f 18 00 00 1f f0 00 18     ?...............
    6024:	00 18 00 18 00 00 00 00 00 00 00 00 0f 18 00 18     ................
    6034:	3f d8 00 1e 0f 18 19 98 19 98 0f 18 00 18 18 00     ?...............
    6044:	18 00 0f f8 00 00 00 00 00 00 00 00 0f 18 00 18     ................
    6054:	3f de 0f 18 19 98 0f 18 00 00 1f f0 00 18 0f f0     ?...............
    6064:	18 00 0f f8 00 00 00 00 00 00 00 00 0f 18 00 18     ................
    6074:	3f de 0f 18 19 98 19 98 0f 18 00 00 1f f8 18 18     ?...............
    6084:	18 18 1f f8 00 00 00 00 00 00 00 00 0f 18 00 18     ................
    6094:	3f de 0f 18 19 98 19 98 0f 18 00 00 18 18 1f f8     ?...............
    60a4:	18 18 0f f0 00 00 00 00 00 00 00 00 0f 18 00 18     ................
    60b4:	3f de 0f 18 19 98 19 98 0f 18 00 00 0f f0 18 18     ?...............
    60c4:	18 18 0f f0 00 00 00 00 00 00 00 00 00 d8 1c d8     ................
    60d4:	00 d8 3e d8 00 d8 1c f8 36 d8 36 d8 36 d8 36 d8     ..>.....6.6.6.6.
    60e4:	1c d8 00 d8 00 00 00 00 00 00 00 00 0e d8 00 d8     ................
    60f4:	3f d8 0e f8 1b d8 1b d8 0e d8 00 00 1f f0 00 18     ?...............
    6104:	00 18 00 18 00 00 00 00 00 00 00 00 0e d8 00 d8     ................
    6114:	3f d8 0e f8 1b d8 1b d8 0e d8 00 18 01 80 01 80     ?...............
    6124:	07 e0 1c 38 00 00 00 00 00 00 00 00 0e d8 00 d8     ...8............
    6134:	3f d8 0e f8 1b d8 1b d8 0e d8 00 00 06 60 06 60     ?............`.`
    6144:	0f f0 39 9c 00 00 00 00 00 00 00 00 0e d8 00 d8     ..9.............
    6154:	3f d8 0e f8 1b d8 1b d8 0e d8 00 00 07 f0 0c 18     ?...............
    6164:	0c 18 07 f0 00 00 00 00 00 00 00 00 0f 18 00 18     ................
    6174:	3f de 0f 18 19 98 19 9e 0f 18 00 00 0f f0 18 18     ?...............
    6184:	18 18 0f f0 00 00 00 00 00 00 00 00 00 18 0f 18     ................
    6194:	00 18 3f d8 00 18 0f 18 19 f8 19 98 19 98 19 98     ..?.............
    61a4:	0f 18 00 18 00 00 00 00 00 00 00 00 0f 18 00 18     ................
    61b4:	3f d8 00 18 0f 18 19 f8 19 98 0f 18 00 18 18 00     ?...............
    61c4:	18 00 0f f8 00 00 00 00 00 00 00 00 0f 18 00 18     ................
    61d4:	3f 98 0f 78 19 98 19 98 0f 18 00 00 1f f8 18 18     ?..x............
    61e4:	18 18 1f f8 00 00 00 00 00 00 00 00 00 d8 1c d8     ................
    61f4:	00 d8 3e d8 00 d8 1c d8 37 d8 36 d8 36 d8 36 d8     ..>.....7.6.6.6.
    6204:	1c d8 00 d8 00 00 00 00 00 00 00 00 00 18 0f 18     ................
    6214:	00 18 3f d8 00 18 0f f8 19 98 19 98 19 f8 19 98     ..?.............
    6224:	0f 18 00 18 00 00 00 00 00 00 00 00 0f 18 00 18     ................
    6234:	3f f8 0f 18 19 f8 19 98 0f 18 00 00 1f f0 00 18     ?...............
    6244:	00 18 00 18 00 00 00 00 00 00 00 00 0f 18 00 18     ................
    6254:	3f d8 00 78 0f 18 19 f8 19 98 0f 18 00 18 18 00     ?..x............
    6264:	18 00 0f f8 00 00 00 00 00 00 00 00 0f 18 00 18     ................
    6274:	3f f8 0f 18 19 f8 19 98 0f 18 00 00 1f f8 18 18     ?...............
    6284:	18 18 1f f8 00 00 00 00 00 00 00 00 0f 18 00 18     ................
    6294:	3f f8 0f 18 19 f8 19 98 0f 18 00 00 18 18 1f f8     ?...............
    62a4:	18 18 0f f0 00 00 00 00 00 00 00 00 0f 18 00 18     ................
    62b4:	3f f8 0f 18 19 f8 19 98 0f 18 00 00 06 60 06 60     ?............`.`
    62c4:	0f f0 39 9c 00 00 00 00 00 00 00 00 0f 18 00 18     ..9.............
    62d4:	3f d8 0f 78 19 98 19 f8 0f 18 00 00 0f f0 18 18     ?..x............
    62e4:	18 18 0f f0 00 00 00 00 00 00 00 00 00 d8 1c d8     ................
    62f4:	00 d8 3e d8 00 d8 1f d8 36 d8 36 d8 37 d8 36 d8     ..>.....6.6.7.6.
    6304:	1c d8 00 d8 00 00 00 00 00 00 00 00 03 c0 00 00     ................
    6314:	1f f8 00 00 07 e0 0c 30 0c 30 07 e0 01 80 01 80     .......0.0......
    6324:	3f fc 00 00 00 00 00 00 00 00 00 00 01 80 1f f8     ?...............
    6334:	06 60 0c 30 07 e0 01 80 3f fc 00 00 1f f0 00 18     .`.0....?.......
    6344:	00 18 00 18 00 00 00 00 00 00 00 00 01 80 1f f8     ................
    6354:	06 60 0c 30 07 e0 01 80 01 80 3f fc 00 00 18 00     .`.0......?.....
    6364:	18 00 0f f8 00 00 00 00 00 00 00 00 01 80 1f f8     ................
    6374:	06 60 0c 30 07 e0 01 80 3f fc 00 00 1f f8 18 18     .`.0....?.......
    6384:	18 18 1f f8 00 00 00 00 00 00 00 00 01 80 1f f8     ................
    6394:	06 60 0c 30 07 e0 01 80 3f fc 00 00 0f f0 18 18     .`.0....?.......
    63a4:	18 18 0f f0 00 00 00 00 00 00 00 00 0f 98 00 18     ................
    63b4:	3f f8 00 18 0f 98 18 de 18 d8 0f 98 06 18 06 18     ?...............
    63c4:	3f f8 00 18 00 00 00 00 00 00 00 00 06 18 3f d8     ?.............?.
    63d4:	0f 18 19 9e 0f 18 06 18 3f f8 00 00 1f f0 00 18     ........?.......
    63e4:	00 18 00 18 00 00 00 00 00 00 00 00 0f 18 00 18     ................
    63f4:	3f d8 0f 18 19 98 0f 1e 06 18 3f f8 00 18 18 00     ?.........?.....
    6404:	18 00 0f f8 00 00 00 00 00 00 00 00 06 18 3f d8     ..............?.
    6414:	19 98 0f 1e 06 18 3f f8 00 00 1f f0 00 18 0f f0     ......?.........
    6424:	18 00 0f f8 00 00 00 00 00 00 00 00 06 18 3f d8     ..............?.
    6434:	0f 18 19 9e 0f 18 06 18 3f f8 00 00 0f f0 18 18     ........?.......
    6444:	18 18 0f f0 00 00 00 00 00 00 00 00 0f 98 00 18     ................
    6454:	3f f8 00 18 0f 98 18 d8 18 d8 0f 98 03 18 03 18     ?...............
    6464:	3f f8 00 18 00 00 00 00 00 00 00 00 06 18 3f d8     ?.............?.
    6474:	0f 18 19 98 0f 18 06 18 3f f8 00 00 1f f0 00 18     ........?.......
    6484:	00 18 00 18 00 00 00 00 00 00 00 00 03 c0 00 00     ................
    6494:	1f f8 00 00 07 e0 0c 30 0c 30 07 e0 06 60 06 60     .......0.0...`.`
    64a4:	3f fc 00 00 00 00 00 00 00 00 00 00 03 c0 00 00     ?...............
    64b4:	1f f8 00 00 07 e0 0c 30 07 e0 00 00 3f fc 01 80     .......0....?...
    64c4:	01 80 01 80 00 00 00 00 00 00 00 00 03 c0 00 00     ................
    64d4:	1f f8 06 60 0c 30 07 e0 00 00 3f fc 01 80 19 80     ...`.0....?.....
    64e4:	18 00 0f f8 00 00 00 00 00 00 00 00 06 18 3f d8     ..............?.
    64f4:	19 f8 0f 18 00 18 3f f8 06 00 1f f0 00 18 0f f0     ......?.........
    6504:	18 00 0f f8 00 00 00 00 00 00 00 00 0f 98 00 18     ................
    6514:	3f f8 00 18 0f 98 18 d8 0f 98 00 18 3f f8 06 18     ?...........?...
    6524:	06 18 0c 18 00 00 00 00 00 00 00 00 06 18 3f d8     ..............?.
    6534:	0f 18 19 98 0f 18 00 18 3f f8 06 00 18 18 1f f8     ........?.......
    6544:	18 18 0f f0 00 00 00 00 00 00 00 00 01 80 1f f8     ................
    6554:	06 60 0c 30 07 e0 00 00 3f fc 06 60 0f f0 18 18     .`.0....?..`....
    6564:	18 18 0f f0 00 00 00 00 00 00 00 00 03 c0 00 00     ................
    6574:	1f f8 00 00 07 e0 0c 30 0c 30 07 e0 00 00 00 00     .......0.0......
    6584:	3f fc 00 00 00 00 00 00 00 00 00 00 01 80 1f f8     ?...............
    6594:	06 60 0c 30 07 e0 00 00 3f fc 00 00 1f f0 00 18     .`.0....?.......
    65a4:	00 18 00 18 00 00 00 00 00 00 00 00 01 80 1f f8     ................
    65b4:	06 60 0c 30 07 e0 00 00 00 00 3f fc 00 00 18 00     .`.0......?.....
    65c4:	18 00 0f f8 00 00 00 00 00 00 00 00 01 80 1f f8     ................
    65d4:	06 60 03 c0 00 00 3f fc 00 00 1f f0 00 18 0f f0     .`....?.........
    65e4:	18 00 0f f8 00 00 00 00 00 00 00 00 01 80 1f f8     ................
    65f4:	06 60 0c 30 07 e0 00 00 3f fc 00 00 1f f8 18 18     .`.0....?.......
    6604:	18 18 1f f8 00 00 00 00 00 00 00 00 0f 98 00 18     ................
    6614:	3f f8 00 18 0f 98 18 d8 18 d8 0f 98 00 18 3f f8     ?.............?.
    6624:	00 18 00 18 00 00 00 00 00 00 00 00 0f 18 00 18     ................
    6634:	3f d8 0f 18 19 98 0f 18 00 18 3f f8 00 18 18 00     ?.........?.....
    6644:	18 00 0f f8 00 00 00 00 00 00 00 00 0f 18 00 18     ................
    6654:	3f d8 00 18 0f 18 19 98 19 98 19 98 19 98 19 98     ?...............
    6664:	0f 18 00 18 00 00 00 00 00 00 00 00 0f 18 00 18     ................
    6674:	3f d8 00 18 0f 18 19 98 19 98 0f 18 00 18 18 00     ?...............
    6684:	18 00 0f f8 00 00 00 00 00 00 00 00 0f 18 00 18     ................
    6694:	3f d8 0f 18 19 98 19 98 0f 18 00 00 1f f8 18 18     ?...............
    66a4:	18 18 1f f8 00 00 00 00                             ........

000066ac <KorFont_IndexTable>:
    66ac:	a1 b0 a2 b0 a3 b0 a4 b0 a5 b0 a8 b0 aa b0 ac b0     ................
    66bc:	ad b0 ae b0 b0 b0 b3 b0 b4 b0 bb b0 c5 b0 c7 b0     ................
    66cc:	c9 b0 cb b0 cc b0 cd b0 d1 b0 d4 b0 da b0 dc b0     ................
    66dc:	dd b0 de b0 df b0 e1 b0 e5 b0 e6 b0 e7 b0 e8 b0     ................
    66ec:	ed b0 ee b0 ef b0 f0 b0 f6 b0 f7 b0 f8 b0 fa b0     ................
    66fc:	fc b0 fd b0 a4 b1 a6 b1 ab b1 b3 b1 b8 b1 b9 b1     ................
    670c:	ba b1 bb b1 bc b1 bd b1 be b1 c3 b1 c7 b1 cd b1     ................
    671c:	d4 b1 d5 b1 d7 b1 d8 b1 d9 b1 db b1 dd b1 de b1     ................
    672c:	e0 b1 e2 b1 e4 b1 e6 b1 e8 b1 ed b1 ee b1 f2 b1     ................
    673c:	fa b1 a8 b2 aa b2 af b2 b1 b2 b2 b2 bc b2 c4 b2     ................
    674c:	c5 b2 cf b2 d9 b2 de b2 e0 b2 ee b2 ef b2 f0 b2     ................
    675c:	f6 b2 f7 b2 f8 b2 fb b2 a1 b3 a2 b3 a6 b3 aa b3     ................
    676c:	ab b3 ad b3 af b3 b2 b3 b5 b3 b6 b3 b7 b3 bb b3     ................
    677c:	bd b3 be b3 bf b3 c2 b3 c3 b3 c4 b3 ca b3 ce b3     ................
    678c:	d0 b3 d1 b3 d6 b3 d7 b3 dd b3 e2 b3 e4 b3 eb b3     ................
    679c:	ed b3 f0 b3 f3 b3 f4 b3 f5 b3 f9 b3 fa b3 a9 b4     ................
    67ac:	ab b4 b5 b4 ba b4 bd b4 c0 b4 c2 b4 c3 b4 c9 b4     ................
    67bc:	cf b4 d1 b4 d2 b4 d6 b4 d7 b4 d9 b4 dc b4 dd b4     ................
    67cc:	de b4 df b4 e3 b4 e4 b4 e7 b4 eb b4 f5 b4 f8 b4     ................
    67dc:	fa b4 fc b4 a1 b5 a5 b5 a8 b5 b5 b5 b6 b5 b7 b5     ................
    67ec:	b9 b5 bd b5 bf b5 c6 b5 c7 b5 c8 b5 c9 b5 ca b5     ................
    67fc:	ce b5 cf b5 d0 b5 d1 b5 da b5 de b5 e0 b5 e5 b5     ................
    680c:	e6 b5 e7 b5 e8 b5 e9 b5 eb b5 ec b5 ed b5 ee b5     ................
    681c:	f0 b5 f2 b5 f9 b5 fb b5 fd b5 fe b5 a5 b6 a7 b6     ................
    682c:	b0 b6 b2 b6 b3 b6 bb b6 bc b6 c7 b6 d1 b6 d7 b6     ................
    683c:	d9 b6 df b6 e1 b6 e6 b6 e7 b6 f3 b6 f4 b6 f5 b6     ................
    684c:	f7 b6 fa b6 fb b6 a1 b7 a2 b7 a3 b7 a7 b7 ab b7     ................
    685c:	ae b7 af b7 b1 b7 b2 b7 b3 b7 b4 b7 b6 b7 b7 b7     ................
    686c:	b8 b7 b9 b7 bb b7 c1 b7 c2 b7 c3 b7 c4 b7 c5 b7     ................
    687c:	c6 b7 c8 b7 c9 b7 ca b7 ce b7 cf b7 d0 b7 d1 b7     ................
    688c:	d3 b7 d4 b7 d5 b7 e1 b7 e7 b7 e9 b7 eb b7 ec b7     ................
    689c:	ef b7 f9 b7 fc b7 fd b7 a3 b8 a5 b8 a6 b8 a7 b8     ................
    68ac:	a8 b8 ae b8 af b8 b0 b8 b1 b8 b2 b8 b3 b8 b4 b8     ................
    68bc:	b6 b8 b7 b8 b8 b8 b9 b8 bb b8 be b8 c0 b8 c1 b8     ................
    68cc:	c2 b8 c3 b8 c5 b8 c6 b8 d3 b8 d5 b8 da b8 de b8     ................
    68dc:	e0 b8 e2 b8 e7 b8 e9 b8 ed b8 ee b8 f0 b8 f1 b8     ................
    68ec:	f4 b8 f6 b8 f8 b8 f9 b8 ab b9 ac b9 ad b9 ae b9     ................
    68fc:	b0 b9 b6 b9 b9 b9 ba b9 c2 b9 c7 b9 cc b9 ce b9     ................
    690c:	cf b9 d0 b9 d4 b9 d7 b9 d8 b9 d9 b9 da b9 db b9     ................
    691c:	dd b9 de b9 df b9 e0 b9 e2 b9 e3 b9 e4 b9 e6 b9     ................
    692c:	e8 b9 e9 b9 f0 b9 f6 b9 f8 b9 fa b9 fc b9 fd b9     ................
    693c:	fe b9 a3 ba a5 ba ae ba af ba b0 ba b4 ba b8 ba     ................
    694c:	b9 ba bb ba bc ba c0 ba c1 ba ce ba cf ba d0 ba     ................
    695c:	d2 ba d9 ba e4 ba ea ba ed ba f1 ba f2 ba f4 ba     ................
    696c:	f8 ba fa ba fb ba fc ba a9 bb b8 bb cb bb d1 bb     ................
    697c:	d3 bb db bb e7 bb ea bb ec bb ee bb ef bb f2 bb     ................
    698c:	f3 bb f5 bb f6 bb f7 bb f9 bb fd bb fe bb ad bc     ................
    699c:	ae bc b1 bc b3 bc b6 bc b7 bc b8 bc b9 bc ba bc     ................
    69ac:	bc bc be bc bf bc c5 bc c7 bc c8 bc d2 bc d3 bc     ................
    69bc:	d5 bc d6 bc db bc e2 bc e8 bc ee bc f6 bc f7 bc     ................
    69cc:	f8 bc fa bc a2 bd ac bd b1 bd b4 bd b7 bd ba bd     ................
    69dc:	bc bd bd bd bf bd c0 bd c2 bd c3 bd c4 bd c5 bd     ................
    69ec:	c6 bd c7 bd c8 bd c9 bd ca bd cc bd cd bd ce bd     ................
    69fc:	cf bd d7 bd e1 bd e9 bd f1 bd a6 be b2 be b4 be     ................
    6a0c:	b5 be b8 be ba be be be bf be c0 be c6 be c7 be     ................
    6a1c:	c8 be c9 be ca be cb be cf be d0 be d2 be d3 be     ................
    6a2c:	d5 be d6 be d7 be db be df be e0 be e7 be ea be     ................
    6a3c:	ee be ef be f0 be f2 be f3 be f6 be f7 be f8 be     ................
    6a4c:	f9 be fa be a1 bf a3 bf a4 bf a9 bf aa bf ac bf     ................
    6a5c:	ad bf b1 bf b4 bf b5 bf b9 bf be bf c0 bf c1 bf     ................
    6a6c:	c2 bf c3 bf c4 bf c5 bf cb bf cd bf cf bf d4 bf     ................
    6a7c:	d6 bf dc bf de bf e4 bf e5 bf eb bf ec bf ed bf     ................
    6a8c:	ee bf ef bf f2 bf f5 bf f6 bf f8 bf f9 bf fc bf     ................
    6a9c:	fe bf a5 c0 a7 c0 aa c0 af c0 b0 c0 b1 c0 b2 c0     ................
    6aac:	b6 c0 b8 c0 ba c0 bb c0 bd c0 c0 c0 c7 c0 cc c0     ................
    6abc:	cd c0 ce c0 cf c0 d0 c0 d2 c0 d3 c0 d4 c0 d6 c0     ................
    6acc:	d7 c0 d8 c0 da c0 db c0 dc c0 dd c0 df c0 e1 c0     ................
    6adc:	e2 c0 e5 c0 e7 c0 ef c0 fa c0 fb c0 fc c0 fd c0     ................
    6aec:	a1 c1 a2 c1 a4 c1 a6 c1 a7 c1 ae c1 b3 c1 b6 c1     ................
    6afc:	b7 c1 b8 c1 be c1 c1 c1 c2 c1 cb c1 d6 c1 d7 c1     ................
    6b0c:	d8 c1 d9 c1 df c1 ee c1 ef c1 f0 c1 f1 c1 f2 c1     ................
    6b1c:	f5 c1 f6 c1 f7 c1 f8 c1 fa c1 fc c1 fd c1 fe c1     ................
    6b2c:	a1 c2 a5 c2 b0 c2 b7 c2 bc c2 ca c2 eb c2 ef c2     ................
    6b3c:	f7 c2 f8 c2 f9 c2 fb c2 fc c2 a2 c3 a3 c3 a4 c3     ................
    6b4c:	a5 c3 a6 c3 b3 c3 b5 c3 b6 c3 b7 c3 b9 c3 bb c3     ................
    6b5c:	bc c3 c4 c3 c6 c3 ca c3 cc c3 d1 c3 d6 c3 df c3     ................
    6b6c:	e0 c3 e1 c3 e2 c3 e6 c3 e7 c3 eb c3 f7 c3 f8 c3     ................
    6b7c:	fe c3 a1 c4 a2 c4 a3 c4 a5 c4 a7 c4 a8 c4 a9 c4     ................
    6b8c:	aa c4 ab c4 ae c4 b3 c4 bf c4 c1 c4 c4 c4 c9 c4     ................
    6b9c:	d1 c4 d7 c4 da c4 dc c4 ec c4 ed c4 f7 c4 fd c4     ................
    6bac:	a5 c5 a9 c5 ab c5 ac c5 ad c5 b0 c5 b2 c5 b6 c5     ................
    6bbc:	b8 c5 b9 c5 ba c5 bb c5 bd c5 be c5 c1 c5 c2 c5     ................
    6bcc:	c3 c5 cd c5 cf c5 d0 c5 d2 c5 d6 c5 d7 c5 d8 c5     ................
    6bdc:	d9 c5 da c5 db c5 e4 c5 eb c5 f0 c5 f5 c5 ae c6     ................
    6bec:	af c6 bc c6 bd c6 be c6 c0 c6 c3 c6 c4 c6 c6 c6     ................
    6bfc:	c7 c6 ce c6 d0 c6 d2 c6 db c6 de c6 e4 c6 ec c6     ................
    6c0c:	ed c6 f2 c6 f3 c6 f7 c6 f8 c6 f9 c6 fa c6 a5 c7     ................
    6c1c:	aa c7 ae c7 b0 c7 b3 c7 bb c7 c1 c7 c3 c7 c7 c7     ................
    6c2c:	c9 c7 ca c7 ce c7 cf c7 d0 c7 d1 c7 d2 c7 d4 c7     ................
    6c3c:	d5 c7 d7 c7 d8 c7 d9 c7 de c7 df c7 e0 c7 e2 c7     ................
    6c4c:	e3 c7 e5 c7 e8 c7 ec c7 f4 c7 f5 c7 f6 c7 f8 c7     ................
    6c5c:	f9 c7 fb c7 fc c7 fd c7 a3 c8 a4 c8 a5 c8 a8 c8     ................
    6c6c:	ab c8 ad c8 ae c8 af c8 b0 c8 b2 c8 b8 c8 b9 c8     ................
    6c7c:	bf c8 c4 c8 c6 c8 ce c8 d6 c8 db c8 e4 c8 e5 c8     ................
    6c8c:	e6 c8 e7 c8 ea c8 ec c8 f1 c8 f2 c8 f7 c8 f9 c8     ................
    6c9c:	fb c8                                               ..

00006c9e <__ctors_end>:
    6c9e:	11 24       	eor	r1, r1
    6ca0:	1f be       	out	0x3f, r1	; 63
    6ca2:	cf ef       	ldi	r28, 0xFF	; 255
    6ca4:	d0 e1       	ldi	r29, 0x10	; 16
    6ca6:	de bf       	out	0x3e, r29	; 62
    6ca8:	cd bf       	out	0x3d, r28	; 61

00006caa <__do_copy_data>:
    6caa:	11 e0       	ldi	r17, 0x01	; 1
    6cac:	a0 e0       	ldi	r26, 0x00	; 0
    6cae:	b1 e0       	ldi	r27, 0x01	; 1
    6cb0:	e2 e1       	ldi	r30, 0x12	; 18
    6cb2:	f8 e8       	ldi	r31, 0x88	; 136
    6cb4:	00 e0       	ldi	r16, 0x00	; 0
    6cb6:	0b bf       	out	0x3b, r16	; 59
    6cb8:	02 c0       	rjmp	.+4      	; 0x6cbe <__do_copy_data+0x14>
    6cba:	07 90       	elpm	r0, Z+
    6cbc:	0d 92       	st	X+, r0
    6cbe:	a6 3a       	cpi	r26, 0xA6	; 166
    6cc0:	b1 07       	cpc	r27, r17
    6cc2:	d9 f7       	brne	.-10     	; 0x6cba <__do_copy_data+0x10>

00006cc4 <__do_clear_bss>:
    6cc4:	13 e0       	ldi	r17, 0x03	; 3
    6cc6:	a6 ea       	ldi	r26, 0xA6	; 166
    6cc8:	b1 e0       	ldi	r27, 0x01	; 1
    6cca:	01 c0       	rjmp	.+2      	; 0x6cce <.do_clear_bss_start>

00006ccc <.do_clear_bss_loop>:
    6ccc:	1d 92       	st	X+, r1

00006cce <.do_clear_bss_start>:
    6cce:	a7 38       	cpi	r26, 0x87	; 135
    6cd0:	b1 07       	cpc	r27, r17
    6cd2:	e1 f7       	brne	.-8      	; 0x6ccc <.do_clear_bss_loop>
    6cd4:	0e 94 70 36 	call	0x6ce0	; 0x6ce0 <main>
    6cd8:	0c 94 07 44 	jmp	0x880e	; 0x880e <_exit>

00006cdc <__bad_interrupt>:
    6cdc:	0c 94 00 00 	jmp	0	; 0x0 <__vectors>

00006ce0 <main>:


static void Init(void)
{
	/* */
	LED_Init();
    6ce0:	0e 94 21 37 	call	0x6e42	; 0x6e42 <LED_Init>
	FND_Init();
    6ce4:	0e 94 8a 36 	call	0x6d14	; 0x6d14 <FND_Init>
	Extint_Init();
    6ce8:	0e 94 36 37 	call	0x6e6c	; 0x6e6c <Extint_Init>
	UART_Init();
    6cec:	0e 94 82 37 	call	0x6f04	; 0x6f04 <UART_Init>
	Timer_Init();
    6cf0:	0e 94 fb 37 	call	0x6ff6	; 0x6ff6 <Timer_Init>
	LCD_Init();
    6cf4:	0e 94 17 3e 	call	0x7c2e	; 0x7c2e <LCD_Init>
	ADC_Init();
    6cf8:	0e 94 9d 38 	call	0x713a	; 0x713a <ADC_Init>
	KEY_Init();
    6cfc:	0e 94 7e 40 	call	0x80fc	; 0x80fc <KEY_Init>
	Remocon_Init();
    6d00:	0e 94 8c 40 	call	0x8118	; 0x8118 <Remocon_Init>
	Event_Init();
    6d04:	0e 94 55 41 	call	0x82aa	; 0x82aa <Event_Init>
{
	uint8_t i;
	
	Init();

	Clock_App();
    6d08:	0e 94 f6 42 	call	0x85ec	; 0x85ec <Clock_App>

	
	sei();		//Global Interrupt Enable
    6d0c:	78 94       	sei
	while(1)
	{
		Event_Process();
    6d0e:	0e 94 5d 41 	call	0x82ba	; 0x82ba <Event_Process>
    6d12:	fd cf       	rjmp	.-6      	; 0x6d0e <main+0x2e>

00006d14 <FND_Init>:
uint8_t FND_Buffer[] = {0xff,0xff,0xff,0xff};

void FND_Init(void)
{
	/*   (PA0~7(Data_0~7) : , PG4(FND_LE):, PF4~7(FND_0~3) :  ) */
	DDRA = 0xFF;
    6d14:	8f ef       	ldi	r24, 0xFF	; 255
    6d16:	8a bb       	out	0x1a, r24	; 26
	DDG4 = 1;
    6d18:	e4 e6       	ldi	r30, 0x64	; 100
    6d1a:	f0 e0       	ldi	r31, 0x00	; 0
    6d1c:	80 81       	ld	r24, Z
    6d1e:	80 61       	ori	r24, 0x10	; 16
    6d20:	80 83       	st	Z, r24
	DDRF |= 0xF0;
    6d22:	e1 e6       	ldi	r30, 0x61	; 97
    6d24:	f0 e0       	ldi	r31, 0x00	; 0
    6d26:	80 81       	ld	r24, Z
    6d28:	80 6f       	ori	r24, 0xF0	; 240
    6d2a:	80 83       	st	Z, r24

	/*   (Timer2,CTC Mode, 1/1024, 5ms Interrupt) */
	WGM21 = 1;
    6d2c:	85 b5       	in	r24, 0x25	; 37
    6d2e:	88 60       	ori	r24, 0x08	; 8
    6d30:	85 bd       	out	0x25, r24	; 37
	WGM20 = 0;
    6d32:	85 b5       	in	r24, 0x25	; 37
    6d34:	8f 7b       	andi	r24, 0xBF	; 191
    6d36:	85 bd       	out	0x25, r24	; 37
	CS22 = 1;
    6d38:	85 b5       	in	r24, 0x25	; 37
    6d3a:	84 60       	ori	r24, 0x04	; 4
    6d3c:	85 bd       	out	0x25, r24	; 37
	CS21 = 0;
    6d3e:	85 b5       	in	r24, 0x25	; 37
    6d40:	8d 7f       	andi	r24, 0xFD	; 253
    6d42:	85 bd       	out	0x25, r24	; 37
	CS20 = 1;
    6d44:	85 b5       	in	r24, 0x25	; 37
    6d46:	81 60       	ori	r24, 0x01	; 1
    6d48:	85 bd       	out	0x25, r24	; 37
	OCR2 = 35;	//5ms
    6d4a:	83 e2       	ldi	r24, 0x23	; 35
    6d4c:	83 bd       	out	0x23, r24	; 35
	OCIE2 = 1;	//Interrupt Enable
    6d4e:	87 b7       	in	r24, 0x37	; 55
    6d50:	80 68       	ori	r24, 0x80	; 128
    6d52:	87 bf       	out	0x37, r24	; 55
}
    6d54:	08 95       	ret

00006d56 <FND_On>:

void FND_On(uint8_t Num,uint8_t Digit,uint8_t Dot)
{
    6d56:	a8 2f       	mov	r26, r24
    6d58:	b0 e0       	ldi	r27, 0x00	; 0
	/* Segment  */
	if(Dot)
    6d5a:	44 23       	and	r20, r20
    6d5c:	29 f0       	breq	.+10     	; 0x6d68 <FND_On+0x12>
	{
		PORTA = FND_Pont[Num] & ~0x80;
    6d5e:	a0 50       	subi	r26, 0x00	; 0
    6d60:	bf 4f       	sbci	r27, 0xFF	; 255
    6d62:	8c 91       	ld	r24, X
    6d64:	8f 77       	andi	r24, 0x7F	; 127
    6d66:	03 c0       	rjmp	.+6      	; 0x6d6e <FND_On+0x18>
	}
	else
	{
		PORTA = FND_Pont[Num];
    6d68:	a0 50       	subi	r26, 0x00	; 0
    6d6a:	bf 4f       	sbci	r27, 0xFF	; 255
    6d6c:	8c 91       	ld	r24, X
    6d6e:	8b bb       	out	0x1b, r24	; 27
	}
	PORTG4 = 0;
    6d70:	80 91 65 00 	lds	r24, 0x0065
    6d74:	8f 7e       	andi	r24, 0xEF	; 239
    6d76:	80 93 65 00 	sts	0x0065, r24
	PORTG4 = 1;
    6d7a:	80 91 65 00 	lds	r24, 0x0065
    6d7e:	80 61       	ori	r24, 0x10	; 16
    6d80:	80 93 65 00 	sts	0x0065, r24
	PORTG4 = 0;
    6d84:	80 91 65 00 	lds	r24, 0x0065
    6d88:	8f 7e       	andi	r24, 0xEF	; 239
    6d8a:	80 93 65 00 	sts	0x0065, r24
	
	/* Common  */
	PORTF = (PORTF & 0x0F) | FND_Common[Digit];
    6d8e:	80 91 62 00 	lds	r24, 0x0062
    6d92:	e6 2f       	mov	r30, r22
    6d94:	f0 e0       	ldi	r31, 0x00	; 0
    6d96:	e6 5f       	subi	r30, 0xF6	; 246
    6d98:	fe 4f       	sbci	r31, 0xFE	; 254
    6d9a:	8f 70       	andi	r24, 0x0F	; 15
    6d9c:	90 81       	ld	r25, Z
    6d9e:	89 2b       	or	r24, r25
    6da0:	80 93 62 00 	sts	0x0062, r24
}
    6da4:	08 95       	ret

00006da6 <FND_Write>:

void FND_Write(uint8_t Num,uint8_t Digit,uint8_t Dot)
{
    6da6:	a6 2f       	mov	r26, r22
    6da8:	b0 e0       	ldi	r27, 0x00	; 0
    6daa:	e8 2f       	mov	r30, r24
    6dac:	f0 e0       	ldi	r31, 0x00	; 0
	/* Segment  */
	if(Dot)
    6dae:	44 23       	and	r20, r20
    6db0:	39 f0       	breq	.+14     	; 0x6dc0 <FND_Write+0x1a>
	{
		FND_Buffer[Digit] = FND_Pont[Num] & 0x7F;
    6db2:	a2 5f       	subi	r26, 0xF2	; 242
    6db4:	be 4f       	sbci	r27, 0xFE	; 254
    6db6:	e0 50       	subi	r30, 0x00	; 0
    6db8:	ff 4f       	sbci	r31, 0xFF	; 255
    6dba:	80 81       	ld	r24, Z
    6dbc:	8f 77       	andi	r24, 0x7F	; 127
    6dbe:	05 c0       	rjmp	.+10     	; 0x6dca <FND_Write+0x24>
	}
	else
	{
		FND_Buffer[Digit] = FND_Pont[Num];
    6dc0:	a2 5f       	subi	r26, 0xF2	; 242
    6dc2:	be 4f       	sbci	r27, 0xFE	; 254
    6dc4:	e0 50       	subi	r30, 0x00	; 0
    6dc6:	ff 4f       	sbci	r31, 0xFF	; 255
    6dc8:	80 81       	ld	r24, Z
    6dca:	8c 93       	st	X, r24
    6dcc:	08 95       	ret

00006dce <__vector_9>:
}


/* 5ms  */
ISR(TIMER2_COMP_vect)
{
    6dce:	1f 92       	push	r1
    6dd0:	0f 92       	push	r0
    6dd2:	0f b6       	in	r0, 0x3f	; 63
    6dd4:	0f 92       	push	r0
    6dd6:	0b b6       	in	r0, 0x3b	; 59
    6dd8:	0f 92       	push	r0
    6dda:	11 24       	eor	r1, r1
    6ddc:	8f 93       	push	r24
    6dde:	9f 93       	push	r25
    6de0:	af 93       	push	r26
    6de2:	bf 93       	push	r27
    6de4:	ef 93       	push	r30
    6de6:	ff 93       	push	r31
	static uint8_t Digit = 0;

	/* 0 1 2 3 0 1 2 3...... */
	Digit++;
	Digit %= 4;
    6de8:	a0 91 a6 01 	lds	r26, 0x01A6
    6dec:	af 5f       	subi	r26, 0xFF	; 255
    6dee:	a3 70       	andi	r26, 0x03	; 3
    6df0:	a0 93 a6 01 	sts	0x01A6, r26
	
	/* Segment  */
	PORTA = FND_Buffer[Digit];
    6df4:	b0 e0       	ldi	r27, 0x00	; 0
    6df6:	fd 01       	movw	r30, r26
    6df8:	e2 5f       	subi	r30, 0xF2	; 242
    6dfa:	fe 4f       	sbci	r31, 0xFE	; 254
    6dfc:	80 81       	ld	r24, Z
    6dfe:	8b bb       	out	0x1b, r24	; 27
	PORTG4 = 0;
    6e00:	e5 e6       	ldi	r30, 0x65	; 101
    6e02:	f0 e0       	ldi	r31, 0x00	; 0
    6e04:	80 81       	ld	r24, Z
    6e06:	8f 7e       	andi	r24, 0xEF	; 239
    6e08:	80 83       	st	Z, r24
	PORTG4 = 1;
    6e0a:	80 81       	ld	r24, Z
    6e0c:	80 61       	ori	r24, 0x10	; 16
    6e0e:	80 83       	st	Z, r24
	PORTG4 = 0;
    6e10:	80 81       	ld	r24, Z
    6e12:	8f 7e       	andi	r24, 0xEF	; 239
    6e14:	80 83       	st	Z, r24
	
	/* Common  */
	PORTF = (PORTF & 0x0F)| FND_Common[Digit];
    6e16:	e2 e6       	ldi	r30, 0x62	; 98
    6e18:	f0 e0       	ldi	r31, 0x00	; 0
    6e1a:	80 81       	ld	r24, Z
    6e1c:	a6 5f       	subi	r26, 0xF6	; 246
    6e1e:	be 4f       	sbci	r27, 0xFE	; 254
    6e20:	8f 70       	andi	r24, 0x0F	; 15
    6e22:	9c 91       	ld	r25, X
    6e24:	89 2b       	or	r24, r25
    6e26:	80 83       	st	Z, r24
}
    6e28:	ff 91       	pop	r31
    6e2a:	ef 91       	pop	r30
    6e2c:	bf 91       	pop	r27
    6e2e:	af 91       	pop	r26
    6e30:	9f 91       	pop	r25
    6e32:	8f 91       	pop	r24
    6e34:	0f 90       	pop	r0
    6e36:	0b be       	out	0x3b, r0	; 59
    6e38:	0f 90       	pop	r0
    6e3a:	0f be       	out	0x3f, r0	; 63
    6e3c:	0f 90       	pop	r0
    6e3e:	1f 90       	pop	r1
    6e40:	18 95       	reti

00006e42 <LED_Init>:
#include "type.h"

void LED_Init(void)
{
	/*   (PA0~7(Data_0~7) : , PG3(LED_LE):) */
	DDRA = 0xFF;
    6e42:	8f ef       	ldi	r24, 0xFF	; 255
    6e44:	8a bb       	out	0x1a, r24	; 26
	DDG3 = 1;
    6e46:	e4 e6       	ldi	r30, 0x64	; 100
    6e48:	f0 e0       	ldi	r31, 0x00	; 0
    6e4a:	80 81       	ld	r24, Z
    6e4c:	88 60       	ori	r24, 0x08	; 8
    6e4e:	80 83       	st	Z, r24
}
    6e50:	08 95       	ret

00006e52 <LED_On>:
void LED_On(uint8_t Data)
{
	PORTA = Data;
    6e52:	8b bb       	out	0x1b, r24	; 27
	/* Latch   */
	PORTG3 = 0;	// 0
    6e54:	e5 e6       	ldi	r30, 0x65	; 101
    6e56:	f0 e0       	ldi	r31, 0x00	; 0
    6e58:	80 81       	ld	r24, Z
    6e5a:	87 7f       	andi	r24, 0xF7	; 247
    6e5c:	80 83       	st	Z, r24
	PORTG3 = 1;	// 1
    6e5e:	80 81       	ld	r24, Z
    6e60:	88 60       	ori	r24, 0x08	; 8
    6e62:	80 83       	st	Z, r24
	PORTG3 = 0;	// 0
    6e64:	80 81       	ld	r24, Z
    6e66:	87 7f       	andi	r24, 0xF7	; 247
    6e68:	80 83       	st	Z, r24
}
    6e6a:	08 95       	ret

00006e6c <Extint_Init>:


void Extint_Init(void)
{
	/*   ( INT 4, Falling edge ) */
	ISC41 = 1;		// 1 0 : Falling Edge
    6e6c:	8a b7       	in	r24, 0x3a	; 58
    6e6e:	82 60       	ori	r24, 0x02	; 2
    6e70:	8a bf       	out	0x3a, r24	; 58
	ISC40 = 0;
    6e72:	8a b7       	in	r24, 0x3a	; 58
    6e74:	8e 7f       	andi	r24, 0xFE	; 254
    6e76:	8a bf       	out	0x3a, r24	; 58
	INT4 =1;		// Enable Interrupt
    6e78:	89 b7       	in	r24, 0x39	; 57
    6e7a:	80 61       	ori	r24, 0x10	; 16
    6e7c:	89 bf       	out	0x39, r24	; 57
	
}
    6e7e:	08 95       	ret

00006e80 <Extint_Check>:

uint8_t Extint_Check(void)
{
	if(Extint_Flag)
    6e80:	80 91 a7 01 	lds	r24, 0x01A7
    6e84:	88 23       	and	r24, r24
    6e86:	19 f0       	breq	.+6      	; 0x6e8e <Extint_Check+0xe>
	{
		Extint_Flag = 0;
    6e88:	10 92 a7 01 	sts	0x01A7, r1
    6e8c:	81 e0       	ldi	r24, 0x01	; 1
	}
	else
	{
		return 0;
	}
}
    6e8e:	08 95       	ret

00006e90 <ExtInt_Open>:

void ExtInt_Open(ExtInt_Handle_t Handle)
{
	ExtInt_Handle = Handle;
    6e90:	90 93 a9 01 	sts	0x01A9, r25
    6e94:	80 93 a8 01 	sts	0x01A8, r24
}
    6e98:	08 95       	ret

00006e9a <ExtInt_Close>:

void ExtInt_Close(void)
{
	ExtInt_Handle = NULL;
    6e9a:	10 92 a9 01 	sts	0x01A9, r1
    6e9e:	10 92 a8 01 	sts	0x01A8, r1
}
    6ea2:	08 95       	ret

00006ea4 <__vector_5>:


ISR(INT4_vect)
{
    6ea4:	1f 92       	push	r1
    6ea6:	0f 92       	push	r0
    6ea8:	0f b6       	in	r0, 0x3f	; 63
    6eaa:	0f 92       	push	r0
    6eac:	0b b6       	in	r0, 0x3b	; 59
    6eae:	0f 92       	push	r0
    6eb0:	11 24       	eor	r1, r1
    6eb2:	2f 93       	push	r18
    6eb4:	3f 93       	push	r19
    6eb6:	4f 93       	push	r20
    6eb8:	5f 93       	push	r21
    6eba:	6f 93       	push	r22
    6ebc:	7f 93       	push	r23
    6ebe:	8f 93       	push	r24
    6ec0:	9f 93       	push	r25
    6ec2:	af 93       	push	r26
    6ec4:	bf 93       	push	r27
    6ec6:	ef 93       	push	r30
    6ec8:	ff 93       	push	r31
	Extint_Flag = 1;
    6eca:	81 e0       	ldi	r24, 0x01	; 1
    6ecc:	80 93 a7 01 	sts	0x01A7, r24

	if(ExtInt_Handle)
    6ed0:	e0 91 a8 01 	lds	r30, 0x01A8
    6ed4:	f0 91 a9 01 	lds	r31, 0x01A9
    6ed8:	30 97       	sbiw	r30, 0x00	; 0
    6eda:	09 f0       	breq	.+2      	; 0x6ede <__vector_5+0x3a>
	{
		ExtInt_Handle();
    6edc:	09 95       	icall
	}
}
    6ede:	ff 91       	pop	r31
    6ee0:	ef 91       	pop	r30
    6ee2:	bf 91       	pop	r27
    6ee4:	af 91       	pop	r26
    6ee6:	9f 91       	pop	r25
    6ee8:	8f 91       	pop	r24
    6eea:	7f 91       	pop	r23
    6eec:	6f 91       	pop	r22
    6eee:	5f 91       	pop	r21
    6ef0:	4f 91       	pop	r20
    6ef2:	3f 91       	pop	r19
    6ef4:	2f 91       	pop	r18
    6ef6:	0f 90       	pop	r0
    6ef8:	0b be       	out	0x3b, r0	; 59
    6efa:	0f 90       	pop	r0
    6efc:	0f be       	out	0x3f, r0	; 63
    6efe:	0f 90       	pop	r0
    6f00:	1f 90       	pop	r1
    6f02:	18 95       	reti

00006f04 <UART_Init>:
static UART_Handle_t UART_Handle = NULL;

void UART_Init(void)
{
	/*   */
	U2X1 = 0;		//0 :16 sampling  1: 8sampling
    6f04:	eb e9       	ldi	r30, 0x9B	; 155
    6f06:	f0 e0       	ldi	r31, 0x00	; 0
    6f08:	80 81       	ld	r24, Z
    6f0a:	8d 7f       	andi	r24, 0xFD	; 253
    6f0c:	80 83       	st	Z, r24
	RXCIE1 = 1;		//Enable Interrupt
    6f0e:	ea e9       	ldi	r30, 0x9A	; 154
    6f10:	f0 e0       	ldi	r31, 0x00	; 0
    6f12:	80 81       	ld	r24, Z
    6f14:	80 68       	ori	r24, 0x80	; 128
    6f16:	80 83       	st	Z, r24
	RXEN1 = 1;
    6f18:	80 81       	ld	r24, Z
    6f1a:	80 61       	ori	r24, 0x10	; 16
    6f1c:	80 83       	st	Z, r24
	TXEN1 = 1;
    6f1e:	80 81       	ld	r24, Z
    6f20:	88 60       	ori	r24, 0x08	; 8
    6f22:	80 83       	st	Z, r24
	
	UCSZ12 = 0;		//011 : Data 8 bit
    6f24:	80 81       	ld	r24, Z
    6f26:	8b 7f       	andi	r24, 0xFB	; 251
    6f28:	80 83       	st	Z, r24
	UCSZ11 = 1;
    6f2a:	ed e9       	ldi	r30, 0x9D	; 157
    6f2c:	f0 e0       	ldi	r31, 0x00	; 0
    6f2e:	80 81       	ld	r24, Z
    6f30:	84 60       	ori	r24, 0x04	; 4
    6f32:	80 83       	st	Z, r24
	UCSZ10 = 1;
    6f34:	80 81       	ld	r24, Z
    6f36:	82 60       	ori	r24, 0x02	; 2
    6f38:	80 83       	st	Z, r24
	
	UPM11 = 0;		//00 : Parity None
    6f3a:	80 81       	ld	r24, Z
    6f3c:	8f 7d       	andi	r24, 0xDF	; 223
    6f3e:	80 83       	st	Z, r24
	UPM10 = 0;
    6f40:	80 81       	ld	r24, Z
    6f42:	8f 7e       	andi	r24, 0xEF	; 239
    6f44:	80 83       	st	Z, r24

	USBS1 = 0;		//0 : Stopbit 1
    6f46:	80 81       	ld	r24, Z
    6f48:	87 7f       	andi	r24, 0xF7	; 247
    6f4a:	80 83       	st	Z, r24

	UBRR1H = 0;		// 3 : 115200bps
    6f4c:	10 92 98 00 	sts	0x0098, r1
	UBRR1L = 3;
    6f50:	83 e0       	ldi	r24, 0x03	; 3
    6f52:	80 93 99 00 	sts	0x0099, r24
}
    6f56:	08 95       	ret

00006f58 <UART_PutChar>:

void UART_PutChar(uint8_t Data)
{
    6f58:	98 2f       	mov	r25, r24
	/* UDR     */
	while(UDRE1 == 0);
    6f5a:	80 91 9b 00 	lds	r24, 0x009B
    6f5e:	85 ff       	sbrs	r24, 5
    6f60:	fc cf       	rjmp	.-8      	; 0x6f5a <UART_PutChar+0x2>
	UDR1 = Data;
    6f62:	90 93 9c 00 	sts	0x009C, r25
}
    6f66:	08 95       	ret

00006f68 <UART_PutString>:

void UART_PutString(const char *String)
{
    6f68:	fc 01       	movw	r30, r24
    6f6a:	07 c0       	rjmp	.+14     	; 0x6f7a <UART_PutString+0x12>
}

void UART_PutChar(uint8_t Data)
{
	/* UDR     */
	while(UDRE1 == 0);
    6f6c:	80 91 9b 00 	lds	r24, 0x009B
    6f70:	85 ff       	sbrs	r24, 5
    6f72:	fc cf       	rjmp	.-8      	; 0x6f6c <UART_PutString+0x4>
	UDR1 = Data;
    6f74:	90 93 9c 00 	sts	0x009C, r25
void UART_PutString(const char *String)
{
	while(*String)
	{
		UART_PutChar(*String);
		String++;
    6f78:	31 96       	adiw	r30, 0x01	; 1
	UDR1 = Data;
}

void UART_PutString(const char *String)
{
	while(*String)
    6f7a:	90 81       	ld	r25, Z
    6f7c:	99 23       	and	r25, r25
    6f7e:	b1 f7       	brne	.-20     	; 0x6f6c <UART_PutString+0x4>
	{
		UART_PutChar(*String);
		String++;
	}
}
    6f80:	08 95       	ret

00006f82 <UART_Open>:

void UART_Open(UART_Handle_t Handle)
{
	UART_Handle = Handle;
    6f82:	90 93 ab 01 	sts	0x01AB, r25
    6f86:	80 93 aa 01 	sts	0x01AA, r24
}
    6f8a:	08 95       	ret

00006f8c <UART_Close>:
void UART_Close(void)
{
	UART_Handle = NULL;
    6f8c:	10 92 ab 01 	sts	0x01AB, r1
    6f90:	10 92 aa 01 	sts	0x01AA, r1
}
    6f94:	08 95       	ret

00006f96 <__vector_30>:


ISR(USART1_RX_vect)
{
    6f96:	1f 92       	push	r1
    6f98:	0f 92       	push	r0
    6f9a:	0f b6       	in	r0, 0x3f	; 63
    6f9c:	0f 92       	push	r0
    6f9e:	0b b6       	in	r0, 0x3b	; 59
    6fa0:	0f 92       	push	r0
    6fa2:	11 24       	eor	r1, r1
    6fa4:	2f 93       	push	r18
    6fa6:	3f 93       	push	r19
    6fa8:	4f 93       	push	r20
    6faa:	5f 93       	push	r21
    6fac:	6f 93       	push	r22
    6fae:	7f 93       	push	r23
    6fb0:	8f 93       	push	r24
    6fb2:	9f 93       	push	r25
    6fb4:	af 93       	push	r26
    6fb6:	bf 93       	push	r27
    6fb8:	ef 93       	push	r30
    6fba:	ff 93       	push	r31
	if(UART_Handle)
    6fbc:	e0 91 aa 01 	lds	r30, 0x01AA
    6fc0:	f0 91 ab 01 	lds	r31, 0x01AB
    6fc4:	30 97       	sbiw	r30, 0x00	; 0
    6fc6:	21 f0       	breq	.+8      	; 0x6fd0 <__vector_30+0x3a>
	{
		UART_Handle(UDR1);
    6fc8:	80 91 9c 00 	lds	r24, 0x009C
    6fcc:	90 e0       	ldi	r25, 0x00	; 0
    6fce:	09 95       	icall
	}

}
    6fd0:	ff 91       	pop	r31
    6fd2:	ef 91       	pop	r30
    6fd4:	bf 91       	pop	r27
    6fd6:	af 91       	pop	r26
    6fd8:	9f 91       	pop	r25
    6fda:	8f 91       	pop	r24
    6fdc:	7f 91       	pop	r23
    6fde:	6f 91       	pop	r22
    6fe0:	5f 91       	pop	r21
    6fe2:	4f 91       	pop	r20
    6fe4:	3f 91       	pop	r19
    6fe6:	2f 91       	pop	r18
    6fe8:	0f 90       	pop	r0
    6fea:	0b be       	out	0x3b, r0	; 59
    6fec:	0f 90       	pop	r0
    6fee:	0f be       	out	0x3f, r0	; 63
    6ff0:	0f 90       	pop	r0
    6ff2:	1f 90       	pop	r1
    6ff4:	18 95       	reti

00006ff6 <Timer_Init>:
volatile uint16_t Delay_Count = 0;

void Timer_Init(void)
{
	/*   (Timer0, CTC, 1/256, 5ms Interrupt) */
	WGM00 = 1;	//CTC
    6ff6:	83 b7       	in	r24, 0x33	; 51
    6ff8:	80 64       	ori	r24, 0x40	; 64
    6ffa:	83 bf       	out	0x33, r24	; 51
	WGM01 = 0;
    6ffc:	83 b7       	in	r24, 0x33	; 51
    6ffe:	87 7f       	andi	r24, 0xF7	; 247
    7000:	83 bf       	out	0x33, r24	; 51

	CS00 = 0;		// 110 : 1/256
    7002:	83 b7       	in	r24, 0x33	; 51
    7004:	8e 7f       	andi	r24, 0xFE	; 254
    7006:	83 bf       	out	0x33, r24	; 51
	CS01 = 1;
    7008:	83 b7       	in	r24, 0x33	; 51
    700a:	82 60       	ori	r24, 0x02	; 2
    700c:	83 bf       	out	0x33, r24	; 51
	CS02 = 1;	
    700e:	83 b7       	in	r24, 0x33	; 51
    7010:	84 60       	ori	r24, 0x04	; 4
    7012:	83 bf       	out	0x33, r24	; 51

	OCR0 = 143;		// 143 : 5ms
    7014:	8f e8       	ldi	r24, 0x8F	; 143
    7016:	81 bf       	out	0x31, r24	; 49

	OCIE0 = 1;		// Enable Interrupt
    7018:	87 b7       	in	r24, 0x37	; 55
    701a:	82 60       	ori	r24, 0x02	; 2
    701c:	87 bf       	out	0x37, r24	; 55
}
    701e:	08 95       	ret

00007020 <Alarm_Open>:

void Alarm_Open(Alarm_t Alarm,uint16_t msPeriod,Alarm_Handle_t Handle)
{
    7020:	0f 93       	push	r16
    7022:	1f 93       	push	r17
	Alarm_Table[Alarm].Alarm_Handle = Handle;
    7024:	90 e0       	ldi	r25, 0x00	; 0
    7026:	0c ea       	ldi	r16, 0xAC	; 172
    7028:	11 e0       	ldi	r17, 0x01	; 1
    702a:	9c 01       	movw	r18, r24
    702c:	22 0f       	add	r18, r18
    702e:	33 1f       	adc	r19, r19
    7030:	28 0f       	add	r18, r24
    7032:	39 1f       	adc	r19, r25
    7034:	f9 01       	movw	r30, r18
    7036:	ee 0f       	add	r30, r30
    7038:	ff 1f       	adc	r31, r31
    703a:	e0 0f       	add	r30, r16
    703c:	f1 1f       	adc	r31, r17
    703e:	51 83       	std	Z+1, r21	; 0x01
    7040:	40 83       	st	Z, r20
	Alarm_Table[Alarm].msPeriod = msPeriod /5;
    7042:	2f 5f       	subi	r18, 0xFF	; 255
    7044:	3f 4f       	sbci	r19, 0xFF	; 255
    7046:	22 0f       	add	r18, r18
    7048:	33 1f       	adc	r19, r19
    704a:	02 0f       	add	r16, r18
    704c:	13 1f       	adc	r17, r19
    704e:	cb 01       	movw	r24, r22
    7050:	65 e0       	ldi	r22, 0x05	; 5
    7052:	70 e0       	ldi	r23, 0x00	; 0
    7054:	0e 94 f3 43 	call	0x87e6	; 0x87e6 <__udivmodhi4>
    7058:	d8 01       	movw	r26, r16
    705a:	6d 93       	st	X+, r22
    705c:	7c 93       	st	X, r23
	Alarm_Table[Alarm].Count = 0;
    705e:	15 82       	std	Z+5, r1	; 0x05
    7060:	14 82       	std	Z+4, r1	; 0x04
}
    7062:	1f 91       	pop	r17
    7064:	0f 91       	pop	r16
    7066:	08 95       	ret

00007068 <Alarm_Close>:

void Alarm_Close(Alarm_t Alarm)
{
	Alarm_Table[Alarm].Alarm_Handle = NULL;
    7068:	90 e0       	ldi	r25, 0x00	; 0
    706a:	fc 01       	movw	r30, r24
    706c:	ee 0f       	add	r30, r30
    706e:	ff 1f       	adc	r31, r31
    7070:	e8 0f       	add	r30, r24
    7072:	f9 1f       	adc	r31, r25
    7074:	ee 0f       	add	r30, r30
    7076:	ff 1f       	adc	r31, r31
    7078:	e4 55       	subi	r30, 0x54	; 84
    707a:	fe 4f       	sbci	r31, 0xFE	; 254
    707c:	11 82       	std	Z+1, r1	; 0x01
    707e:	10 82       	st	Z, r1
}
    7080:	08 95       	ret

00007082 <Timer_msDelay>:

void Timer_msDelay(uint16_t msDelay)
{
	cli();			// 
    7082:	f8 94       	cli
	Delay_Count = msDelay / 5;		//   
    7084:	65 e0       	ldi	r22, 0x05	; 5
    7086:	70 e0       	ldi	r23, 0x00	; 0
    7088:	0e 94 f3 43 	call	0x87e6	; 0x87e6 <__udivmodhi4>
    708c:	70 93 c5 01 	sts	0x01C5, r23
    7090:	60 93 c4 01 	sts	0x01C4, r22
	sei();			// 
    7094:	78 94       	sei
	while(Delay_Count);
    7096:	80 91 c4 01 	lds	r24, 0x01C4
    709a:	90 91 c5 01 	lds	r25, 0x01C5
    709e:	89 2b       	or	r24, r25
    70a0:	d1 f7       	brne	.-12     	; 0x7096 <Timer_msDelay+0x14>
}
    70a2:	08 95       	ret

000070a4 <__vector_15>:

ISR(TIMER0_COMP_vect)
{
    70a4:	1f 92       	push	r1
    70a6:	0f 92       	push	r0
    70a8:	0f b6       	in	r0, 0x3f	; 63
    70aa:	0f 92       	push	r0
    70ac:	0b b6       	in	r0, 0x3b	; 59
    70ae:	0f 92       	push	r0
    70b0:	11 24       	eor	r1, r1
    70b2:	2f 93       	push	r18
    70b4:	3f 93       	push	r19
    70b6:	4f 93       	push	r20
    70b8:	5f 93       	push	r21
    70ba:	6f 93       	push	r22
    70bc:	7f 93       	push	r23
    70be:	8f 93       	push	r24
    70c0:	9f 93       	push	r25
    70c2:	af 93       	push	r26
    70c4:	bf 93       	push	r27
    70c6:	cf 93       	push	r28
    70c8:	df 93       	push	r29
    70ca:	ef 93       	push	r30
    70cc:	ff 93       	push	r31
    70ce:	cc ea       	ldi	r28, 0xAC	; 172
    70d0:	d1 e0       	ldi	r29, 0x01	; 1
	uint8_t i;
	for(i=0;i<ALARM_MAX;i++)
	{
		if(Alarm_Table[i].Alarm_Handle)
    70d2:	e8 81       	ld	r30, Y
    70d4:	f9 81       	ldd	r31, Y+1	; 0x01
    70d6:	30 97       	sbiw	r30, 0x00	; 0
    70d8:	69 f0       	breq	.+26     	; 0x70f4 <__vector_15+0x50>
		{
			Alarm_Table[i].Count++;
    70da:	8c 81       	ldd	r24, Y+4	; 0x04
    70dc:	9d 81       	ldd	r25, Y+5	; 0x05
    70de:	01 96       	adiw	r24, 0x01	; 1
    70e0:	9d 83       	std	Y+5, r25	; 0x05
    70e2:	8c 83       	std	Y+4, r24	; 0x04
			if(Alarm_Table[i].Count == Alarm_Table[i].msPeriod)
    70e4:	2a 81       	ldd	r18, Y+2	; 0x02
    70e6:	3b 81       	ldd	r19, Y+3	; 0x03
    70e8:	82 17       	cp	r24, r18
    70ea:	93 07       	cpc	r25, r19
    70ec:	19 f4       	brne	.+6      	; 0x70f4 <__vector_15+0x50>
			{
				Alarm_Table[i].Alarm_Handle();
    70ee:	09 95       	icall
				Alarm_Table[i].Count = 0;
    70f0:	1d 82       	std	Y+5, r1	; 0x05
    70f2:	1c 82       	std	Y+4, r1	; 0x04
    70f4:	26 96       	adiw	r28, 0x06	; 6
}

ISR(TIMER0_COMP_vect)
{
	uint8_t i;
	for(i=0;i<ALARM_MAX;i++)
    70f6:	81 e0       	ldi	r24, 0x01	; 1
    70f8:	c4 3c       	cpi	r28, 0xC4	; 196
    70fa:	d8 07       	cpc	r29, r24
    70fc:	51 f7       	brne	.-44     	; 0x70d2 <__vector_15+0x2e>
				Alarm_Table[i].Count = 0;
			}
		}
	}
	/*msDelay*/
	Delay_Count--;
    70fe:	80 91 c4 01 	lds	r24, 0x01C4
    7102:	90 91 c5 01 	lds	r25, 0x01C5
    7106:	01 97       	sbiw	r24, 0x01	; 1
    7108:	90 93 c5 01 	sts	0x01C5, r25
    710c:	80 93 c4 01 	sts	0x01C4, r24
}
    7110:	ff 91       	pop	r31
    7112:	ef 91       	pop	r30
    7114:	df 91       	pop	r29
    7116:	cf 91       	pop	r28
    7118:	bf 91       	pop	r27
    711a:	af 91       	pop	r26
    711c:	9f 91       	pop	r25
    711e:	8f 91       	pop	r24
    7120:	7f 91       	pop	r23
    7122:	6f 91       	pop	r22
    7124:	5f 91       	pop	r21
    7126:	4f 91       	pop	r20
    7128:	3f 91       	pop	r19
    712a:	2f 91       	pop	r18
    712c:	0f 90       	pop	r0
    712e:	0b be       	out	0x3b, r0	; 59
    7130:	0f 90       	pop	r0
    7132:	0f be       	out	0x3f, r0	; 63
    7134:	0f 90       	pop	r0
    7136:	1f 90       	pop	r1
    7138:	18 95       	reti

0000713a <ADC_Init>:


void ADC_Init(void)
{
	/* Register Init */
	REFS1 = 0;		//01 : AVCC
    713a:	3f 98       	cbi	0x07, 7	; 7
	REFS0 = 1;
    713c:	3e 9a       	sbi	0x07, 6	; 7

	ADLAR = 0 ;		// 0 :  
    713e:	3d 98       	cbi	0x07, 5	; 7
	ADEN = 1;		// ADC 
    7140:	37 9a       	sbi	0x06, 7	; 6
	ADIE = 1;		// 
    7142:	33 9a       	sbi	0x06, 3	; 6

	ADPS2 = 1;		// 111 : 1/128
    7144:	32 9a       	sbi	0x06, 2	; 6
	ADPS1 = 1;
    7146:	31 9a       	sbi	0x06, 1	; 6
	ADPS0 = 1;
    7148:	30 9a       	sbi	0x06, 0	; 6
}
    714a:	08 95       	ret

0000714c <ADC_Start>:

void ADC_Start(uint8_t Channel)
{
    714c:	98 2f       	mov	r25, r24
	while(ADSC);		//ADC  
    714e:	36 99       	sbic	0x06, 6	; 6
    7150:	fe cf       	rjmp	.-4      	; 0x714e <ADC_Start+0x2>
	ADMUX = (ADMUX & 0xE0) | Channel;	//Mux 
    7152:	87 b1       	in	r24, 0x07	; 7
    7154:	80 7e       	andi	r24, 0xE0	; 224
    7156:	89 2b       	or	r24, r25
    7158:	87 b9       	out	0x07, r24	; 7
	ADSC = 1;		//ADC Start
    715a:	36 9a       	sbi	0x06, 6	; 6
}
    715c:	08 95       	ret

0000715e <ADC_Open>:

void ADC_Open(uint8_t Channel,ADC_Handle_t Handle)
{
	ADC_Handle[Channel] = Handle;
    715e:	e8 2f       	mov	r30, r24
    7160:	f0 e0       	ldi	r31, 0x00	; 0
    7162:	ee 0f       	add	r30, r30
    7164:	ff 1f       	adc	r31, r31
    7166:	ea 53       	subi	r30, 0x3A	; 58
    7168:	fe 4f       	sbci	r31, 0xFE	; 254
    716a:	71 83       	std	Z+1, r23	; 0x01
    716c:	60 83       	st	Z, r22
}
    716e:	08 95       	ret

00007170 <ADC_Close>:

void ADC_Close(uint8_t Channel)
{
	ADC_Handle[Channel] = NULL;
    7170:	e8 2f       	mov	r30, r24
    7172:	f0 e0       	ldi	r31, 0x00	; 0
    7174:	ee 0f       	add	r30, r30
    7176:	ff 1f       	adc	r31, r31
    7178:	ea 53       	subi	r30, 0x3A	; 58
    717a:	fe 4f       	sbci	r31, 0xFE	; 254
    717c:	11 82       	std	Z+1, r1	; 0x01
    717e:	10 82       	st	Z, r1
}
    7180:	08 95       	ret

00007182 <__vector_21>:

ISR(ADC_vect)
{
    7182:	1f 92       	push	r1
    7184:	0f 92       	push	r0
    7186:	0f b6       	in	r0, 0x3f	; 63
    7188:	0f 92       	push	r0
    718a:	0b b6       	in	r0, 0x3b	; 59
    718c:	0f 92       	push	r0
    718e:	11 24       	eor	r1, r1
    7190:	2f 93       	push	r18
    7192:	3f 93       	push	r19
    7194:	4f 93       	push	r20
    7196:	5f 93       	push	r21
    7198:	6f 93       	push	r22
    719a:	7f 93       	push	r23
    719c:	8f 93       	push	r24
    719e:	9f 93       	push	r25
    71a0:	af 93       	push	r26
    71a2:	bf 93       	push	r27
    71a4:	ef 93       	push	r30
    71a6:	ff 93       	push	r31
	uint8_t Channel;
	uint16_t ADCValue;

	Channel = ADMUX & 0x1f;
    71a8:	e7 b1       	in	r30, 0x07	; 7
	ADCValue = ADCL + ( (uint16_t)ADCH << 8 );
    71aa:	34 b1       	in	r19, 0x04	; 4
    71ac:	25 b1       	in	r18, 0x05	; 5
	if(ADC_Handle[Channel])
    71ae:	f0 e0       	ldi	r31, 0x00	; 0
    71b0:	ef 71       	andi	r30, 0x1F	; 31
    71b2:	f0 70       	andi	r31, 0x00	; 0
    71b4:	ee 0f       	add	r30, r30
    71b6:	ff 1f       	adc	r31, r31
    71b8:	ea 53       	subi	r30, 0x3A	; 58
    71ba:	fe 4f       	sbci	r31, 0xFE	; 254
    71bc:	01 90       	ld	r0, Z+
    71be:	f0 81       	ld	r31, Z
    71c0:	e0 2d       	mov	r30, r0
    71c2:	30 97       	sbiw	r30, 0x00	; 0
    71c4:	29 f0       	breq	.+10     	; 0x71d0 <__vector_21+0x4e>
	{
		ADC_Handle[Channel](ADCValue);
    71c6:	92 2f       	mov	r25, r18
    71c8:	80 e0       	ldi	r24, 0x00	; 0
    71ca:	83 0f       	add	r24, r19
    71cc:	91 1d       	adc	r25, r1
    71ce:	09 95       	icall
	}
}
    71d0:	ff 91       	pop	r31
    71d2:	ef 91       	pop	r30
    71d4:	bf 91       	pop	r27
    71d6:	af 91       	pop	r26
    71d8:	9f 91       	pop	r25
    71da:	8f 91       	pop	r24
    71dc:	7f 91       	pop	r23
    71de:	6f 91       	pop	r22
    71e0:	5f 91       	pop	r21
    71e2:	4f 91       	pop	r20
    71e4:	3f 91       	pop	r19
    71e6:	2f 91       	pop	r18
    71e8:	0f 90       	pop	r0
    71ea:	0b be       	out	0x3b, r0	; 59
    71ec:	0f 90       	pop	r0
    71ee:	0f be       	out	0x3f, r0	; 63
    71f0:	0f 90       	pop	r0
    71f2:	1f 90       	pop	r1
    71f4:	18 95       	reti

000071f6 <LCD_SetLocation>:


void LCD_SetLocation(uint16_t SX, uint16_t SY)
{
	/*   */ 
	LCD_X = SX; 	// X   
    71f6:	90 93 cf 01 	sts	0x01CF, r25
    71fa:	80 93 ce 01 	sts	0x01CE, r24
	LCD_Y = SY;
    71fe:	70 93 d1 01 	sts	0x01D1, r23
    7202:	60 93 d0 01 	sts	0x01D0, r22
}
    7206:	08 95       	ret

00007208 <LCD_WriteInstruction>:
inline static void LCD_WriteInstruction(uint16_t Data)
{
	uint8_t IntFlag;
	
	//   
	IntFlag = I;
    7208:	3f b7       	in	r19, 0x3f	; 63
	I = 0;
    720a:	2f b7       	in	r18, 0x3f	; 63
    720c:	2f 77       	andi	r18, 0x7F	; 127
    720e:	2f bf       	out	0x3f, r18	; 63
		
	LCD_RS_INSTRUCTION;
    7210:	e5 e6       	ldi	r30, 0x65	; 101
    7212:	f0 e0       	ldi	r31, 0x00	; 0
    7214:	20 81       	ld	r18, Z
    7216:	2e 7f       	andi	r18, 0xFE	; 254
    7218:	20 83       	st	Z, r18
	LCD_CS_ENABLE;
    721a:	20 81       	ld	r18, Z
    721c:	2d 7f       	andi	r18, 0xFD	; 253
    721e:	20 83       	st	Z, r18
	
	LCD_DATA_OUT(Data);
    7220:	95 bb       	out	0x15, r25	; 21
    7222:	8b bb       	out	0x1b, r24	; 27

	LCD_WR_ENABLE;
    7224:	97 98       	cbi	0x12, 7	; 18
	LCD_WR_DISABLE;
    7226:	97 9a       	sbi	0x12, 7	; 18

	LCD_CS_DISABLE;
    7228:	80 81       	ld	r24, Z
    722a:	82 60       	ori	r24, 0x02	; 2
    722c:	80 83       	st	Z, r24

	//   
	I = IntFlag;		
    722e:	30 78       	andi	r19, 0x80	; 128
    7230:	8f b7       	in	r24, 0x3f	; 63
    7232:	8f 77       	andi	r24, 0x7F	; 127
    7234:	83 2b       	or	r24, r19
    7236:	8f bf       	out	0x3f, r24	; 63
}
    7238:	08 95       	ret

0000723a <LCD_WriteData>:
inline static void LCD_WriteData(uint16_t Data)
{
	uint8_t IntFlag;
	
	//   
	IntFlag = I;
    723a:	3f b7       	in	r19, 0x3f	; 63
	I = 0;
    723c:	2f b7       	in	r18, 0x3f	; 63
    723e:	2f 77       	andi	r18, 0x7F	; 127
    7240:	2f bf       	out	0x3f, r18	; 63
		
	LCD_RS_DATA;
    7242:	e5 e6       	ldi	r30, 0x65	; 101
    7244:	f0 e0       	ldi	r31, 0x00	; 0
    7246:	20 81       	ld	r18, Z
    7248:	21 60       	ori	r18, 0x01	; 1
    724a:	20 83       	st	Z, r18
	LCD_CS_ENABLE;
    724c:	20 81       	ld	r18, Z
    724e:	2d 7f       	andi	r18, 0xFD	; 253
    7250:	20 83       	st	Z, r18

	LCD_DATA_OUT(Data);
    7252:	95 bb       	out	0x15, r25	; 21
    7254:	8b bb       	out	0x1b, r24	; 27

	LCD_WR_ENABLE;
    7256:	97 98       	cbi	0x12, 7	; 18
	LCD_WR_DISABLE;
    7258:	97 9a       	sbi	0x12, 7	; 18

	LCD_CS_DISABLE;	
    725a:	80 81       	ld	r24, Z
    725c:	82 60       	ori	r24, 0x02	; 2
    725e:	80 83       	st	Z, r24

	//   
	I = IntFlag;		
    7260:	30 78       	andi	r19, 0x80	; 128
    7262:	8f b7       	in	r24, 0x3f	; 63
    7264:	8f 77       	andi	r24, 0x7F	; 127
    7266:	83 2b       	or	r24, r19
    7268:	8f bf       	out	0x3f, r24	; 63
}
    726a:	08 95       	ret

0000726c <LCD_SetAddress>:
}

#endif 

static void LCD_SetAddress(uint16_t X1, uint16_t Y1, uint16_t X2, uint16_t Y2)
{
    726c:	af 92       	push	r10
    726e:	bf 92       	push	r11
    7270:	cf 92       	push	r12
    7272:	df 92       	push	r13
    7274:	ef 92       	push	r14
    7276:	ff 92       	push	r15
    7278:	0f 93       	push	r16
    727a:	1f 93       	push	r17
    727c:	8c 01       	movw	r16, r24
    727e:	7b 01       	movw	r14, r22
    7280:	6a 01       	movw	r12, r20
    7282:	59 01       	movw	r10, r18
	LCD_WriteInstruction(0x0020); 	LCD_WriteData(X1);	   // Column address start1
    7284:	80 e2       	ldi	r24, 0x20	; 32
    7286:	90 e0       	ldi	r25, 0x00	; 0
    7288:	0e 94 04 39 	call	0x7208	; 0x7208 <LCD_WriteInstruction>
    728c:	c8 01       	movw	r24, r16
    728e:	0e 94 1d 39 	call	0x723a	; 0x723a <LCD_WriteData>
	LCD_WriteInstruction(0x0021); 	LCD_WriteData(Y1);	   // Column address end1
    7292:	81 e2       	ldi	r24, 0x21	; 33
    7294:	90 e0       	ldi	r25, 0x00	; 0
    7296:	0e 94 04 39 	call	0x7208	; 0x7208 <LCD_WriteInstruction>
    729a:	c7 01       	movw	r24, r14
    729c:	0e 94 1d 39 	call	0x723a	; 0x723a <LCD_WriteData>
	LCD_WriteInstruction(0x0050); 	LCD_WriteData(X1);	   // Row address start1
    72a0:	80 e5       	ldi	r24, 0x50	; 80
    72a2:	90 e0       	ldi	r25, 0x00	; 0
    72a4:	0e 94 04 39 	call	0x7208	; 0x7208 <LCD_WriteInstruction>
    72a8:	c8 01       	movw	r24, r16
    72aa:	0e 94 1d 39 	call	0x723a	; 0x723a <LCD_WriteData>
    LCD_WriteInstruction(0x0052); 	LCD_WriteData(Y1);	   // Row address end2
    72ae:	82 e5       	ldi	r24, 0x52	; 82
    72b0:	90 e0       	ldi	r25, 0x00	; 0
    72b2:	0e 94 04 39 	call	0x7208	; 0x7208 <LCD_WriteInstruction>
    72b6:	c7 01       	movw	r24, r14
    72b8:	0e 94 1d 39 	call	0x723a	; 0x723a <LCD_WriteData>
	LCD_WriteInstruction(0x0051); 	LCD_WriteData(X2);	   // Row address end1
    72bc:	81 e5       	ldi	r24, 0x51	; 81
    72be:	90 e0       	ldi	r25, 0x00	; 0
    72c0:	0e 94 04 39 	call	0x7208	; 0x7208 <LCD_WriteInstruction>
    72c4:	c6 01       	movw	r24, r12
    72c6:	0e 94 1d 39 	call	0x723a	; 0x723a <LCD_WriteData>
	LCD_WriteInstruction(0x0053); 	LCD_WriteData(Y2);
    72ca:	83 e5       	ldi	r24, 0x53	; 83
    72cc:	90 e0       	ldi	r25, 0x00	; 0
    72ce:	0e 94 04 39 	call	0x7208	; 0x7208 <LCD_WriteInstruction>
    72d2:	c5 01       	movw	r24, r10
    72d4:	0e 94 1d 39 	call	0x723a	; 0x723a <LCD_WriteData>
    LCD_WriteInstruction(0x0022);		
    72d8:	82 e2       	ldi	r24, 0x22	; 34
    72da:	90 e0       	ldi	r25, 0x00	; 0
    72dc:	0e 94 04 39 	call	0x7208	; 0x7208 <LCD_WriteInstruction>
}
    72e0:	1f 91       	pop	r17
    72e2:	0f 91       	pop	r16
    72e4:	ff 90       	pop	r15
    72e6:	ef 90       	pop	r14
    72e8:	df 90       	pop	r13
    72ea:	cf 90       	pop	r12
    72ec:	bf 90       	pop	r11
    72ee:	af 90       	pop	r10
    72f0:	08 95       	ret

000072f2 <LCD_DrawPixel>:
* @param	uint16_t SY		: Y 
* @param	COLOR Color		:    
* @return	void			
*/
void LCD_DrawPixel(uint16_t SX, uint16_t SY, COLOR Color)
{
    72f2:	0f 93       	push	r16
    72f4:	1f 93       	push	r17
    72f6:	fc 01       	movw	r30, r24
    72f8:	9b 01       	movw	r18, r22
    72fa:	8a 01       	movw	r16, r20
	LCD_SetAddress(SX, SY, SX, SY); 	/*    */	
    72fc:	af 01       	movw	r20, r30
    72fe:	0e 94 36 39 	call	0x726c	; 0x726c <LCD_SetAddress>
	LCD_WriteData(Color);				/*  .  */ 
    7302:	c8 01       	movw	r24, r16
    7304:	0e 94 1d 39 	call	0x723a	; 0x723a <LCD_WriteData>
}
    7308:	1f 91       	pop	r17
    730a:	0f 91       	pop	r16
    730c:	08 95       	ret

0000730e <LCD_DrawLine>:


void LCD_DrawLine(uint16_t SX, uint16_t SY,uint16_t DX, uint16_t DY, uint16_t Color)
{
    730e:	2f 92       	push	r2
    7310:	3f 92       	push	r3
    7312:	4f 92       	push	r4
    7314:	5f 92       	push	r5
    7316:	6f 92       	push	r6
    7318:	7f 92       	push	r7
    731a:	8f 92       	push	r8
    731c:	9f 92       	push	r9
    731e:	af 92       	push	r10
    7320:	bf 92       	push	r11
    7322:	cf 92       	push	r12
    7324:	df 92       	push	r13
    7326:	ef 92       	push	r14
    7328:	ff 92       	push	r15
    732a:	0f 93       	push	r16
    732c:	1f 93       	push	r17
    732e:	df 93       	push	r29
    7330:	cf 93       	push	r28
    7332:	cd b7       	in	r28, 0x3d	; 61
    7334:	de b7       	in	r29, 0x3e	; 62
    7336:	a4 97       	sbiw	r28, 0x24	; 36
    7338:	0f b6       	in	r0, 0x3f	; 63
    733a:	f8 94       	cli
    733c:	de bf       	out	0x3e, r29	; 62
    733e:	0f be       	out	0x3f, r0	; 63
    7340:	cd bf       	out	0x3d, r28	; 61
    7342:	98 a3       	std	Y+32, r25	; 0x20
    7344:	8f 8f       	std	Y+31, r24	; 0x1f
    7346:	7c a3       	std	Y+36, r23	; 0x24
    7348:	6b a3       	std	Y+35, r22	; 0x23
    734a:	1a a3       	std	Y+34, r17	; 0x22
    734c:	09 a3       	std	Y+33, r16	; 0x21
	int32_t x, y, addx, addy, dx, dy;
	int32_t P;
	int32_t i;
	
	dx = abs((int32_t)(DX - SX));
    734e:	ca 01       	movw	r24, r20
    7350:	ef 8c       	ldd	r14, Y+31	; 0x1f
    7352:	f8 a0       	ldd	r15, Y+32	; 0x20
    7354:	8e 19       	sub	r24, r14
    7356:	9f 09       	sbc	r25, r15
    7358:	97 ff       	sbrs	r25, 7
    735a:	03 c0       	rjmp	.+6      	; 0x7362 <LCD_DrawLine+0x54>
    735c:	90 95       	com	r25
    735e:	81 95       	neg	r24
    7360:	9f 4f       	sbci	r25, 0xFF	; 255
    7362:	7c 01       	movw	r14, r24
    7364:	00 27       	eor	r16, r16
    7366:	f7 fc       	sbrc	r15, 7
    7368:	00 95       	com	r16
    736a:	10 2f       	mov	r17, r16
    736c:	eb 82       	std	Y+3, r14	; 0x03
    736e:	fc 82       	std	Y+4, r15	; 0x04
    7370:	0d 83       	std	Y+5, r16	; 0x05
    7372:	1e 83       	std	Y+6, r17	; 0x06
	dy = abs((int32_t)(DY - SY));
    7374:	c9 01       	movw	r24, r18
    7376:	0b a1       	ldd	r16, Y+35	; 0x23
    7378:	1c a1       	ldd	r17, Y+36	; 0x24
    737a:	80 1b       	sub	r24, r16
    737c:	91 0b       	sbc	r25, r17
    737e:	97 ff       	sbrs	r25, 7
    7380:	03 c0       	rjmp	.+6      	; 0x7388 <LCD_DrawLine+0x7a>
    7382:	90 95       	com	r25
    7384:	81 95       	neg	r24
    7386:	9f 4f       	sbci	r25, 0xFF	; 255
    7388:	1c 01       	movw	r2, r24
    738a:	44 24       	eor	r4, r4
    738c:	37 fc       	sbrc	r3, 7
    738e:	40 94       	com	r4
    7390:	54 2c       	mov	r5, r4
	x = SX;
    7392:	8f 8d       	ldd	r24, Y+31	; 0x1f
    7394:	98 a1       	ldd	r25, Y+32	; 0x20
    7396:	bc 01       	movw	r22, r24
    7398:	80 e0       	ldi	r24, 0x00	; 0
    739a:	90 e0       	ldi	r25, 0x00	; 0
    739c:	6b 8b       	std	Y+19, r22	; 0x13
    739e:	7c 8b       	std	Y+20, r23	; 0x14
    73a0:	8d 8b       	std	Y+21, r24	; 0x15
    73a2:	9e 8b       	std	Y+22, r25	; 0x16
	y = SY;
    73a4:	0b a1       	ldd	r16, Y+35	; 0x23
    73a6:	1c a1       	ldd	r17, Y+36	; 0x24
    73a8:	78 01       	movw	r14, r16
    73aa:	00 e0       	ldi	r16, 0x00	; 0
    73ac:	10 e0       	ldi	r17, 0x00	; 0
    73ae:	ef 86       	std	Y+15, r14	; 0x0f
    73b0:	f8 8a       	std	Y+16, r15	; 0x10
    73b2:	09 8b       	std	Y+17, r16	; 0x11
    73b4:	1a 8b       	std	Y+18, r17	; 0x12
	
	if(SX > DX)
    73b6:	6f 8d       	ldd	r22, Y+31	; 0x1f
    73b8:	78 a1       	ldd	r23, Y+32	; 0x20
    73ba:	46 17       	cp	r20, r22
    73bc:	57 07       	cpc	r21, r23
    73be:	48 f4       	brcc	.+18     	; 0x73d2 <LCD_DrawLine+0xc4>
    73c0:	8f ef       	ldi	r24, 0xFF	; 255
    73c2:	9f ef       	ldi	r25, 0xFF	; 255
    73c4:	af ef       	ldi	r26, 0xFF	; 255
    73c6:	bf ef       	ldi	r27, 0xFF	; 255
    73c8:	8b 87       	std	Y+11, r24	; 0x0b
    73ca:	9c 87       	std	Y+12, r25	; 0x0c
    73cc:	ad 87       	std	Y+13, r26	; 0x0d
    73ce:	be 87       	std	Y+14, r27	; 0x0e
    73d0:	09 c0       	rjmp	.+18     	; 0x73e4 <LCD_DrawLine+0xd6>
    73d2:	51 e0       	ldi	r21, 0x01	; 1
    73d4:	e5 2e       	mov	r14, r21
    73d6:	f1 2c       	mov	r15, r1
    73d8:	01 2d       	mov	r16, r1
    73da:	11 2d       	mov	r17, r1
    73dc:	eb 86       	std	Y+11, r14	; 0x0b
    73de:	fc 86       	std	Y+12, r15	; 0x0c
    73e0:	0d 87       	std	Y+13, r16	; 0x0d
    73e2:	1e 87       	std	Y+14, r17	; 0x0e
	   addx = -1;
	else
	   addx = 1;
	if(SY > DY)
    73e4:	0b a1       	ldd	r16, Y+35	; 0x23
    73e6:	1c a1       	ldd	r17, Y+36	; 0x24
    73e8:	20 17       	cp	r18, r16
    73ea:	31 07       	cpc	r19, r17
    73ec:	48 f4       	brcc	.+18     	; 0x7400 <LCD_DrawLine+0xf2>
    73ee:	2f ef       	ldi	r18, 0xFF	; 255
    73f0:	3f ef       	ldi	r19, 0xFF	; 255
    73f2:	4f ef       	ldi	r20, 0xFF	; 255
    73f4:	5f ef       	ldi	r21, 0xFF	; 255
    73f6:	2f 83       	std	Y+7, r18	; 0x07
    73f8:	38 87       	std	Y+8, r19	; 0x08
    73fa:	49 87       	std	Y+9, r20	; 0x09
    73fc:	5a 87       	std	Y+10, r21	; 0x0a
    73fe:	08 c0       	rjmp	.+16     	; 0x7410 <LCD_DrawLine+0x102>
    7400:	41 e0       	ldi	r20, 0x01	; 1
    7402:	50 e0       	ldi	r21, 0x00	; 0
    7404:	60 e0       	ldi	r22, 0x00	; 0
    7406:	70 e0       	ldi	r23, 0x00	; 0
    7408:	4f 83       	std	Y+7, r20	; 0x07
    740a:	58 87       	std	Y+8, r21	; 0x08
    740c:	69 87       	std	Y+9, r22	; 0x09
    740e:	7a 87       	std	Y+10, r23	; 0x0a
	   addy = -1;
	else
	   addy = 1;
	
	if(dx >= dy)
    7410:	6b 81       	ldd	r22, Y+3	; 0x03
    7412:	7c 81       	ldd	r23, Y+4	; 0x04
    7414:	8d 81       	ldd	r24, Y+5	; 0x05
    7416:	9e 81       	ldd	r25, Y+6	; 0x06
    7418:	62 15       	cp	r22, r2
    741a:	73 05       	cpc	r23, r3
    741c:	84 05       	cpc	r24, r4
    741e:	95 05       	cpc	r25, r5
    7420:	0c f4       	brge	.+2      	; 0x7424 <LCD_DrawLine+0x116>
    7422:	60 c0       	rjmp	.+192    	; 0x74e4 <LCD_DrawLine+0x1d6>
	{
	   P = 2*dy - dx;
    7424:	d2 01       	movw	r26, r4
    7426:	c1 01       	movw	r24, r2
    7428:	88 0f       	add	r24, r24
    742a:	99 1f       	adc	r25, r25
    742c:	aa 1f       	adc	r26, r26
    742e:	bb 1f       	adc	r27, r27
    7430:	8b 8f       	std	Y+27, r24	; 0x1b
    7432:	9c 8f       	std	Y+28, r25	; 0x1c
    7434:	ad 8f       	std	Y+29, r26	; 0x1d
    7436:	be 8f       	std	Y+30, r27	; 0x1e
    7438:	7c 01       	movw	r14, r24
    743a:	8d 01       	movw	r16, r26
    743c:	2b 81       	ldd	r18, Y+3	; 0x03
    743e:	3c 81       	ldd	r19, Y+4	; 0x04
    7440:	4d 81       	ldd	r20, Y+5	; 0x05
    7442:	5e 81       	ldd	r21, Y+6	; 0x06
    7444:	e2 1a       	sub	r14, r18
    7446:	f3 0a       	sbc	r15, r19
    7448:	04 0b       	sbc	r16, r20
    744a:	15 0b       	sbc	r17, r21
			 P += 2*dy;
			 x += addx;
		  }
		  else
		  {
			 P += 2*dy - 2*dx;
    744c:	42 01       	movw	r8, r4
    744e:	31 01       	movw	r6, r2
    7450:	62 1a       	sub	r6, r18
    7452:	73 0a       	sbc	r7, r19
    7454:	84 0a       	sbc	r8, r20
    7456:	95 0a       	sbc	r9, r21
    7458:	66 0c       	add	r6, r6
    745a:	77 1c       	adc	r7, r7
    745c:	88 1c       	adc	r8, r8
    745e:	99 1c       	adc	r9, r9
    7460:	4b 84       	ldd	r4, Y+11	; 0x0b
    7462:	5c 84       	ldd	r5, Y+12	; 0x0c
    7464:	aa 24       	eor	r10, r10
    7466:	bb 24       	eor	r11, r11
    7468:	65 01       	movw	r12, r10
    746a:	32 c0       	rjmp	.+100    	; 0x74d0 <LCD_DrawLine+0x1c2>
	{
	   P = 2*dy - dx;
	
	   for(i=0; i<=dx; ++i)
	   {
		  LCD_DrawPixel(x, y, Color);
    746c:	8f 8d       	ldd	r24, Y+31	; 0x1f
    746e:	98 a1       	ldd	r25, Y+32	; 0x20
    7470:	6f 85       	ldd	r22, Y+15	; 0x0f
    7472:	78 89       	ldd	r23, Y+16	; 0x10
    7474:	49 a1       	ldd	r20, Y+33	; 0x21
    7476:	5a a1       	ldd	r21, Y+34	; 0x22
    7478:	0e 94 79 39 	call	0x72f2	; 0x72f2 <LCD_DrawPixel>
	
		  if(P < 0)
    747c:	17 ff       	sbrs	r17, 7
    747e:	09 c0       	rjmp	.+18     	; 0x7492 <LCD_DrawLine+0x184>
		  {
			 P += 2*dy;
    7480:	4b 8d       	ldd	r20, Y+27	; 0x1b
    7482:	5c 8d       	ldd	r21, Y+28	; 0x1c
    7484:	6d 8d       	ldd	r22, Y+29	; 0x1d
    7486:	7e 8d       	ldd	r23, Y+30	; 0x1e
    7488:	e4 0e       	add	r14, r20
    748a:	f5 1e       	adc	r15, r21
    748c:	06 1f       	adc	r16, r22
    748e:	17 1f       	adc	r17, r23
    7490:	14 c0       	rjmp	.+40     	; 0x74ba <LCD_DrawLine+0x1ac>
			 x += addx;
		  }
		  else
		  {
			 P += 2*dy - 2*dx;
    7492:	e6 0c       	add	r14, r6
    7494:	f7 1c       	adc	r15, r7
    7496:	08 1d       	adc	r16, r8
    7498:	19 1d       	adc	r17, r9
			 x += addx;
			 y += addy;
    749a:	6f 85       	ldd	r22, Y+15	; 0x0f
    749c:	78 89       	ldd	r23, Y+16	; 0x10
    749e:	89 89       	ldd	r24, Y+17	; 0x11
    74a0:	9a 89       	ldd	r25, Y+18	; 0x12
    74a2:	2f 81       	ldd	r18, Y+7	; 0x07
    74a4:	38 85       	ldd	r19, Y+8	; 0x08
    74a6:	49 85       	ldd	r20, Y+9	; 0x09
    74a8:	5a 85       	ldd	r21, Y+10	; 0x0a
    74aa:	62 0f       	add	r22, r18
    74ac:	73 1f       	adc	r23, r19
    74ae:	84 1f       	adc	r24, r20
    74b0:	95 1f       	adc	r25, r21
    74b2:	6f 87       	std	Y+15, r22	; 0x0f
    74b4:	78 8b       	std	Y+16, r23	; 0x10
    74b6:	89 8b       	std	Y+17, r24	; 0x11
    74b8:	9a 8b       	std	Y+18, r25	; 0x12
	
	if(dx >= dy)
	{
	   P = 2*dy - dx;
	
	   for(i=0; i<=dx; ++i)
    74ba:	08 94       	sec
    74bc:	a1 1c       	adc	r10, r1
    74be:	b1 1c       	adc	r11, r1
    74c0:	c1 1c       	adc	r12, r1
    74c2:	d1 1c       	adc	r13, r1
    74c4:	4f 8d       	ldd	r20, Y+31	; 0x1f
    74c6:	58 a1       	ldd	r21, Y+32	; 0x20
    74c8:	44 0d       	add	r20, r4
    74ca:	55 1d       	adc	r21, r5
    74cc:	58 a3       	std	Y+32, r21	; 0x20
    74ce:	4f 8f       	std	Y+31, r20	; 0x1f
    74d0:	6b 81       	ldd	r22, Y+3	; 0x03
    74d2:	7c 81       	ldd	r23, Y+4	; 0x04
    74d4:	8d 81       	ldd	r24, Y+5	; 0x05
    74d6:	9e 81       	ldd	r25, Y+6	; 0x06
    74d8:	6a 15       	cp	r22, r10
    74da:	7b 05       	cpc	r23, r11
    74dc:	8c 05       	cpc	r24, r12
    74de:	9d 05       	cpc	r25, r13
    74e0:	2c f6       	brge	.-118    	; 0x746c <LCD_DrawLine+0x15e>
    74e2:	5f c0       	rjmp	.+190    	; 0x75a2 <LCD_DrawLine+0x294>
		  }
	   }
	}
	else
	{
	   P = 2*dx - dy;
    74e4:	8b 81       	ldd	r24, Y+3	; 0x03
    74e6:	9c 81       	ldd	r25, Y+4	; 0x04
    74e8:	ad 81       	ldd	r26, Y+5	; 0x05
    74ea:	be 81       	ldd	r27, Y+6	; 0x06
    74ec:	88 0f       	add	r24, r24
    74ee:	99 1f       	adc	r25, r25
    74f0:	aa 1f       	adc	r26, r26
    74f2:	bb 1f       	adc	r27, r27
    74f4:	8f 8b       	std	Y+23, r24	; 0x17
    74f6:	98 8f       	std	Y+24, r25	; 0x18
    74f8:	a9 8f       	std	Y+25, r26	; 0x19
    74fa:	ba 8f       	std	Y+26, r27	; 0x1a
    74fc:	7c 01       	movw	r14, r24
    74fe:	8d 01       	movw	r16, r26
    7500:	e2 18       	sub	r14, r2
    7502:	f3 08       	sbc	r15, r3
    7504:	04 09       	sbc	r16, r4
    7506:	15 09       	sbc	r17, r5
			 P += 2*dx;
			 y += addy;
		  }
		  else
		  {
			 P += 2*dx - 2*dy;
    7508:	6b 80       	ldd	r6, Y+3	; 0x03
    750a:	7c 80       	ldd	r7, Y+4	; 0x04
    750c:	8d 80       	ldd	r8, Y+5	; 0x05
    750e:	9e 80       	ldd	r9, Y+6	; 0x06
    7510:	62 18       	sub	r6, r2
    7512:	73 08       	sbc	r7, r3
    7514:	84 08       	sbc	r8, r4
    7516:	95 08       	sbc	r9, r5
    7518:	66 0c       	add	r6, r6
    751a:	77 1c       	adc	r7, r7
    751c:	88 1c       	adc	r8, r8
    751e:	99 1c       	adc	r9, r9
    7520:	af 81       	ldd	r26, Y+7	; 0x07
    7522:	b8 85       	ldd	r27, Y+8	; 0x08
    7524:	ba 83       	std	Y+2, r27	; 0x02
    7526:	a9 83       	std	Y+1, r26	; 0x01
    7528:	aa 24       	eor	r10, r10
    752a:	bb 24       	eor	r11, r11
    752c:	65 01       	movw	r12, r10
    752e:	34 c0       	rjmp	.+104    	; 0x7598 <LCD_DrawLine+0x28a>
	{
	   P = 2*dx - dy;
	
	   for(i=0; i<=dy; ++i)
	   {
		  LCD_DrawPixel(x, y, Color);
    7530:	8b 89       	ldd	r24, Y+19	; 0x13
    7532:	9c 89       	ldd	r25, Y+20	; 0x14
    7534:	6b a1       	ldd	r22, Y+35	; 0x23
    7536:	7c a1       	ldd	r23, Y+36	; 0x24
    7538:	49 a1       	ldd	r20, Y+33	; 0x21
    753a:	5a a1       	ldd	r21, Y+34	; 0x22
    753c:	0e 94 79 39 	call	0x72f2	; 0x72f2 <LCD_DrawPixel>
	
		  if(P < 0)
    7540:	17 ff       	sbrs	r17, 7
    7542:	09 c0       	rjmp	.+18     	; 0x7556 <LCD_DrawLine+0x248>
		  {
			 P += 2*dx;
    7544:	2f 89       	ldd	r18, Y+23	; 0x17
    7546:	38 8d       	ldd	r19, Y+24	; 0x18
    7548:	49 8d       	ldd	r20, Y+25	; 0x19
    754a:	5a 8d       	ldd	r21, Y+26	; 0x1a
    754c:	e2 0e       	add	r14, r18
    754e:	f3 1e       	adc	r15, r19
    7550:	04 1f       	adc	r16, r20
    7552:	15 1f       	adc	r17, r21
    7554:	14 c0       	rjmp	.+40     	; 0x757e <LCD_DrawLine+0x270>
			 y += addy;
		  }
		  else
		  {
			 P += 2*dx - 2*dy;
    7556:	e6 0c       	add	r14, r6
    7558:	f7 1c       	adc	r15, r7
    755a:	08 1d       	adc	r16, r8
    755c:	19 1d       	adc	r17, r9
			 x += addx;
    755e:	4b 89       	ldd	r20, Y+19	; 0x13
    7560:	5c 89       	ldd	r21, Y+20	; 0x14
    7562:	6d 89       	ldd	r22, Y+21	; 0x15
    7564:	7e 89       	ldd	r23, Y+22	; 0x16
    7566:	8b 85       	ldd	r24, Y+11	; 0x0b
    7568:	9c 85       	ldd	r25, Y+12	; 0x0c
    756a:	ad 85       	ldd	r26, Y+13	; 0x0d
    756c:	be 85       	ldd	r27, Y+14	; 0x0e
    756e:	48 0f       	add	r20, r24
    7570:	59 1f       	adc	r21, r25
    7572:	6a 1f       	adc	r22, r26
    7574:	7b 1f       	adc	r23, r27
    7576:	4b 8b       	std	Y+19, r20	; 0x13
    7578:	5c 8b       	std	Y+20, r21	; 0x14
    757a:	6d 8b       	std	Y+21, r22	; 0x15
    757c:	7e 8b       	std	Y+22, r23	; 0x16
	}
	else
	{
	   P = 2*dx - dy;
	
	   for(i=0; i<=dy; ++i)
    757e:	08 94       	sec
    7580:	a1 1c       	adc	r10, r1
    7582:	b1 1c       	adc	r11, r1
    7584:	c1 1c       	adc	r12, r1
    7586:	d1 1c       	adc	r13, r1
    7588:	ab a1       	ldd	r26, Y+35	; 0x23
    758a:	bc a1       	ldd	r27, Y+36	; 0x24
    758c:	e9 81       	ldd	r30, Y+1	; 0x01
    758e:	fa 81       	ldd	r31, Y+2	; 0x02
    7590:	ae 0f       	add	r26, r30
    7592:	bf 1f       	adc	r27, r31
    7594:	bc a3       	std	Y+36, r27	; 0x24
    7596:	ab a3       	std	Y+35, r26	; 0x23
    7598:	2a 14       	cp	r2, r10
    759a:	3b 04       	cpc	r3, r11
    759c:	4c 04       	cpc	r4, r12
    759e:	5d 04       	cpc	r5, r13
    75a0:	3c f6       	brge	.-114    	; 0x7530 <LCD_DrawLine+0x222>
			 x += addx;
			 y += addy;
		  }
	   }
	}
}
    75a2:	a4 96       	adiw	r28, 0x24	; 36
    75a4:	0f b6       	in	r0, 0x3f	; 63
    75a6:	f8 94       	cli
    75a8:	de bf       	out	0x3e, r29	; 62
    75aa:	0f be       	out	0x3f, r0	; 63
    75ac:	cd bf       	out	0x3d, r28	; 61
    75ae:	cf 91       	pop	r28
    75b0:	df 91       	pop	r29
    75b2:	1f 91       	pop	r17
    75b4:	0f 91       	pop	r16
    75b6:	ff 90       	pop	r15
    75b8:	ef 90       	pop	r14
    75ba:	df 90       	pop	r13
    75bc:	cf 90       	pop	r12
    75be:	bf 90       	pop	r11
    75c0:	af 90       	pop	r10
    75c2:	9f 90       	pop	r9
    75c4:	8f 90       	pop	r8
    75c6:	7f 90       	pop	r7
    75c8:	6f 90       	pop	r6
    75ca:	5f 90       	pop	r5
    75cc:	4f 90       	pop	r4
    75ce:	3f 90       	pop	r3
    75d0:	2f 90       	pop	r2
    75d2:	08 95       	ret

000075d4 <LCD_DrawRect>:
	}
}


void LCD_DrawRect(uint16_t SX, uint16_t SY, uint16_t DX, uint16_t DY, uint8_t Fill, uint16_t Color)
{
    75d4:	6f 92       	push	r6
    75d6:	7f 92       	push	r7
    75d8:	8f 92       	push	r8
    75da:	9f 92       	push	r9
    75dc:	af 92       	push	r10
    75de:	bf 92       	push	r11
    75e0:	cf 92       	push	r12
    75e2:	df 92       	push	r13
    75e4:	ef 92       	push	r14
    75e6:	ff 92       	push	r15
    75e8:	0f 93       	push	r16
    75ea:	1f 93       	push	r17
    75ec:	cf 93       	push	r28
    75ee:	df 93       	push	r29
    75f0:	4c 01       	movw	r8, r24
    75f2:	6b 01       	movw	r12, r22
    75f4:	3a 01       	movw	r6, r20
    75f6:	59 01       	movw	r10, r18
	if(Fill)
    75f8:	00 23       	and	r16, r16
    75fa:	a1 f0       	breq	.+40     	; 0x7624 <LCD_DrawRect+0x50>
	{
	   int16_t y, ymax; 						 //  y / . 
	   if(SY < DY)
    75fc:	62 17       	cp	r22, r18
    75fe:	73 07       	cpc	r23, r19
    7600:	18 f4       	brcc	.+6      	; 0x7608 <LCD_DrawRect+0x34>
	   {
		  y = SY;
    7602:	eb 01       	movw	r28, r22
		  ymax = DY;
    7604:	69 01       	movw	r12, r18
    7606:	0a c0       	rjmp	.+20     	; 0x761c <LCD_DrawRect+0x48>
	   }
	   else
	   {
		  y = DY;
    7608:	e9 01       	movw	r28, r18
    760a:	08 c0       	rjmp	.+16     	; 0x761c <LCD_DrawRect+0x48>
		  ymax = SY;
	   }

	   for(; y<=ymax; ++y) 				   		//  . 
		  LCD_DrawLine(SX, y, DX, y, Color);
    760c:	c4 01       	movw	r24, r8
    760e:	be 01       	movw	r22, r28
    7610:	a3 01       	movw	r20, r6
    7612:	9e 01       	movw	r18, r28
    7614:	87 01       	movw	r16, r14
    7616:	0e 94 87 39 	call	0x730e	; 0x730e <LCD_DrawLine>
	   {
		  y = DY;
		  ymax = SY;
	   }

	   for(; y<=ymax; ++y) 				   		//  . 
    761a:	21 96       	adiw	r28, 0x01	; 1
    761c:	cc 16       	cp	r12, r28
    761e:	dd 06       	cpc	r13, r29
    7620:	ac f7       	brge	.-22     	; 0x760c <LCD_DrawRect+0x38>
    7622:	16 c0       	rjmp	.+44     	; 0x7650 <LCD_DrawRect+0x7c>
		  LCD_DrawLine(SX, y, DX, y, Color);
	}
	else
	{
	   LCD_DrawLine(SX, SY, DX, SY, Color);	  	// 4  . 
    7624:	96 01       	movw	r18, r12
    7626:	87 01       	movw	r16, r14
    7628:	0e 94 87 39 	call	0x730e	; 0x730e <LCD_DrawLine>
	   LCD_DrawLine(SX, DY, DX, DY, Color);
    762c:	c4 01       	movw	r24, r8
    762e:	b5 01       	movw	r22, r10
    7630:	a3 01       	movw	r20, r6
    7632:	95 01       	movw	r18, r10
    7634:	0e 94 87 39 	call	0x730e	; 0x730e <LCD_DrawLine>
	   LCD_DrawLine(SX, SY, SX, DY, Color);
    7638:	c4 01       	movw	r24, r8
    763a:	b6 01       	movw	r22, r12
    763c:	a4 01       	movw	r20, r8
    763e:	95 01       	movw	r18, r10
    7640:	0e 94 87 39 	call	0x730e	; 0x730e <LCD_DrawLine>
	   LCD_DrawLine(DX, SY, DX, DY, Color);
    7644:	c3 01       	movw	r24, r6
    7646:	b6 01       	movw	r22, r12
    7648:	a3 01       	movw	r20, r6
    764a:	95 01       	movw	r18, r10
    764c:	0e 94 87 39 	call	0x730e	; 0x730e <LCD_DrawLine>
	}
}
    7650:	df 91       	pop	r29
    7652:	cf 91       	pop	r28
    7654:	1f 91       	pop	r17
    7656:	0f 91       	pop	r16
    7658:	ff 90       	pop	r15
    765a:	ef 90       	pop	r14
    765c:	df 90       	pop	r13
    765e:	cf 90       	pop	r12
    7660:	bf 90       	pop	r11
    7662:	af 90       	pop	r10
    7664:	9f 90       	pop	r9
    7666:	8f 90       	pop	r8
    7668:	7f 90       	pop	r7
    766a:	6f 90       	pop	r6
    766c:	08 95       	ret

0000766e <LCD_DrawCircle>:
	}
}


void LCD_DrawCircle(uint16_t SX, uint16_t SY, uint16_t Radius,uint8_t Fill, uint16_t Color)
{
    766e:	2f 92       	push	r2
    7670:	3f 92       	push	r3
    7672:	4f 92       	push	r4
    7674:	5f 92       	push	r5
    7676:	6f 92       	push	r6
    7678:	7f 92       	push	r7
    767a:	8f 92       	push	r8
    767c:	9f 92       	push	r9
    767e:	af 92       	push	r10
    7680:	bf 92       	push	r11
    7682:	cf 92       	push	r12
    7684:	df 92       	push	r13
    7686:	ef 92       	push	r14
    7688:	ff 92       	push	r15
    768a:	0f 93       	push	r16
    768c:	1f 93       	push	r17
    768e:	df 93       	push	r29
    7690:	cf 93       	push	r28
    7692:	cd b7       	in	r28, 0x3d	; 61
    7694:	de b7       	in	r29, 0x3e	; 62
    7696:	2d 97       	sbiw	r28, 0x0d	; 13
    7698:	0f b6       	in	r0, 0x3f	; 63
    769a:	f8 94       	cli
    769c:	de bf       	out	0x3e, r29	; 62
    769e:	0f be       	out	0x3f, r0	; 63
    76a0:	cd bf       	out	0x3d, r28	; 61
    76a2:	98 87       	std	Y+8, r25	; 0x08
    76a4:	8f 83       	std	Y+7, r24	; 0x07
    76a6:	7a 87       	std	Y+10, r23	; 0x0a
    76a8:	69 87       	std	Y+9, r22	; 0x09
    76aa:	2b 87       	std	Y+11, r18	; 0x0b
    76ac:	1d 87       	std	Y+13, r17	; 0x0d
    76ae:	0c 87       	std	Y+12, r16	; 0x0c

	uint16_t x,y;
	int16_t delta,tmp;
	x = 0;
	y = Radius;
	delta = 3 - (Radius << 1);
    76b0:	ca 01       	movw	r24, r20
    76b2:	88 0f       	add	r24, r24
    76b4:	99 1f       	adc	r25, r25
    76b6:	e3 e0       	ldi	r30, 0x03	; 3
    76b8:	ee 2e       	mov	r14, r30
    76ba:	f1 2c       	mov	r15, r1
    76bc:	e8 1a       	sub	r14, r24
    76be:	f9 0a       	sbc	r15, r25
    76c0:	5a 01       	movw	r10, r20
    76c2:	8f 81       	ldd	r24, Y+7	; 0x07
    76c4:	98 85       	ldd	r25, Y+8	; 0x08
    76c6:	9c 83       	std	Y+4, r25	; 0x04
    76c8:	8b 83       	std	Y+3, r24	; 0x03
    76ca:	9a 83       	std	Y+2, r25	; 0x02
    76cc:	89 83       	std	Y+1, r24	; 0x01
    76ce:	1b 01       	movw	r2, r22
    76d0:	2b 01       	movw	r4, r22
    76d2:	1e 82       	std	Y+6, r1	; 0x06
    76d4:	1d 82       	std	Y+5, r1	; 0x05
    76d6:	09 85       	ldd	r16, Y+9	; 0x09
    76d8:	1a 85       	ldd	r17, Y+10	; 0x0a
    76da:	0a 0d       	add	r16, r10
    76dc:	1b 1d       	adc	r17, r11
    76de:	c9 84       	ldd	r12, Y+9	; 0x09
    76e0:	da 84       	ldd	r13, Y+10	; 0x0a
    76e2:	ca 18       	sub	r12, r10
    76e4:	db 08       	sbc	r13, r11
    76e6:	8f 80       	ldd	r8, Y+7	; 0x07
    76e8:	98 84       	ldd	r9, Y+8	; 0x08
    76ea:	8a 0c       	add	r8, r10
    76ec:	9b 1c       	adc	r9, r11
    76ee:	6f 80       	ldd	r6, Y+7	; 0x07
    76f0:	78 84       	ldd	r7, Y+8	; 0x08
    76f2:	6a 18       	sub	r6, r10
    76f4:	7b 08       	sbc	r7, r11

	while(y >= x)
	{
		if(Fill)
    76f6:	9b 85       	ldd	r25, Y+11	; 0x0b
    76f8:	99 23       	and	r25, r25
    76fa:	29 f1       	breq	.+74     	; 0x7746 <LCD_DrawCircle+0xd8>
		{
			LCD_DrawLine(SX + x, SY + y, SX -x, SY + y, Color);
    76fc:	8b 81       	ldd	r24, Y+3	; 0x03
    76fe:	9c 81       	ldd	r25, Y+4	; 0x04
    7700:	b8 01       	movw	r22, r16
    7702:	49 81       	ldd	r20, Y+1	; 0x01
    7704:	5a 81       	ldd	r21, Y+2	; 0x02
    7706:	98 01       	movw	r18, r16
    7708:	0c 85       	ldd	r16, Y+12	; 0x0c
    770a:	1d 85       	ldd	r17, Y+13	; 0x0d
    770c:	0e 94 87 39 	call	0x730e	; 0x730e <LCD_DrawLine>
			LCD_DrawLine(SX + x, SY - y, SX -x, SY - y, Color);
    7710:	8b 81       	ldd	r24, Y+3	; 0x03
    7712:	9c 81       	ldd	r25, Y+4	; 0x04
    7714:	b6 01       	movw	r22, r12
    7716:	49 81       	ldd	r20, Y+1	; 0x01
    7718:	5a 81       	ldd	r21, Y+2	; 0x02
    771a:	96 01       	movw	r18, r12
    771c:	0c 85       	ldd	r16, Y+12	; 0x0c
    771e:	1d 85       	ldd	r17, Y+13	; 0x0d
    7720:	0e 94 87 39 	call	0x730e	; 0x730e <LCD_DrawLine>
			LCD_DrawLine(SX + y, SY + x, SX -y, SY + x, Color);
    7724:	c4 01       	movw	r24, r8
    7726:	b1 01       	movw	r22, r2
    7728:	a3 01       	movw	r20, r6
    772a:	91 01       	movw	r18, r2
    772c:	0c 85       	ldd	r16, Y+12	; 0x0c
    772e:	1d 85       	ldd	r17, Y+13	; 0x0d
    7730:	0e 94 87 39 	call	0x730e	; 0x730e <LCD_DrawLine>
			LCD_DrawLine(SX + y, SY - x, SX -y, SY - x, Color);
    7734:	c4 01       	movw	r24, r8
    7736:	b2 01       	movw	r22, r4
    7738:	a3 01       	movw	r20, r6
    773a:	92 01       	movw	r18, r4
    773c:	0c 85       	ldd	r16, Y+12	; 0x0c
    773e:	1d 85       	ldd	r17, Y+13	; 0x0d
    7740:	0e 94 87 39 	call	0x730e	; 0x730e <LCD_DrawLine>
    7744:	34 c0       	rjmp	.+104    	; 0x77ae <LCD_DrawCircle+0x140>
		}
		else
		{
			LCD_DrawPixel(SX + x, SY + y, Color);
    7746:	8b 81       	ldd	r24, Y+3	; 0x03
    7748:	9c 81       	ldd	r25, Y+4	; 0x04
    774a:	b8 01       	movw	r22, r16
    774c:	4c 85       	ldd	r20, Y+12	; 0x0c
    774e:	5d 85       	ldd	r21, Y+13	; 0x0d
    7750:	0e 94 79 39 	call	0x72f2	; 0x72f2 <LCD_DrawPixel>
			LCD_DrawPixel(SX - x, SY + y, Color);
    7754:	89 81       	ldd	r24, Y+1	; 0x01
    7756:	9a 81       	ldd	r25, Y+2	; 0x02
    7758:	b8 01       	movw	r22, r16
    775a:	4c 85       	ldd	r20, Y+12	; 0x0c
    775c:	5d 85       	ldd	r21, Y+13	; 0x0d
    775e:	0e 94 79 39 	call	0x72f2	; 0x72f2 <LCD_DrawPixel>
			LCD_DrawPixel(SX + x, SY - y, Color);
    7762:	8b 81       	ldd	r24, Y+3	; 0x03
    7764:	9c 81       	ldd	r25, Y+4	; 0x04
    7766:	b6 01       	movw	r22, r12
    7768:	4c 85       	ldd	r20, Y+12	; 0x0c
    776a:	5d 85       	ldd	r21, Y+13	; 0x0d
    776c:	0e 94 79 39 	call	0x72f2	; 0x72f2 <LCD_DrawPixel>
			LCD_DrawPixel(SX - x, SY - y, Color);
    7770:	89 81       	ldd	r24, Y+1	; 0x01
    7772:	9a 81       	ldd	r25, Y+2	; 0x02
    7774:	b6 01       	movw	r22, r12
    7776:	4c 85       	ldd	r20, Y+12	; 0x0c
    7778:	5d 85       	ldd	r21, Y+13	; 0x0d
    777a:	0e 94 79 39 	call	0x72f2	; 0x72f2 <LCD_DrawPixel>
			LCD_DrawPixel(SX + y, SY + x, Color);
    777e:	c4 01       	movw	r24, r8
    7780:	b1 01       	movw	r22, r2
    7782:	4c 85       	ldd	r20, Y+12	; 0x0c
    7784:	5d 85       	ldd	r21, Y+13	; 0x0d
    7786:	0e 94 79 39 	call	0x72f2	; 0x72f2 <LCD_DrawPixel>
			LCD_DrawPixel(SX - y, SY + x, Color);
    778a:	c3 01       	movw	r24, r6
    778c:	b1 01       	movw	r22, r2
    778e:	4c 85       	ldd	r20, Y+12	; 0x0c
    7790:	5d 85       	ldd	r21, Y+13	; 0x0d
    7792:	0e 94 79 39 	call	0x72f2	; 0x72f2 <LCD_DrawPixel>
			LCD_DrawPixel(SX + y, SY - x, Color);
    7796:	c4 01       	movw	r24, r8
    7798:	b2 01       	movw	r22, r4
    779a:	4c 85       	ldd	r20, Y+12	; 0x0c
    779c:	5d 85       	ldd	r21, Y+13	; 0x0d
    779e:	0e 94 79 39 	call	0x72f2	; 0x72f2 <LCD_DrawPixel>
			LCD_DrawPixel(SX - y, SY - x, Color);
    77a2:	c3 01       	movw	r24, r6
    77a4:	b2 01       	movw	r22, r4
    77a6:	4c 85       	ldd	r20, Y+12	; 0x0c
    77a8:	5d 85       	ldd	r21, Y+13	; 0x0d
    77aa:	0e 94 79 39 	call	0x72f2	; 0x72f2 <LCD_DrawPixel>
		}
		x++;
    77ae:	ed 81       	ldd	r30, Y+5	; 0x05
    77b0:	fe 81       	ldd	r31, Y+6	; 0x06
    77b2:	31 96       	adiw	r30, 0x01	; 1
    77b4:	fe 83       	std	Y+6, r31	; 0x06
    77b6:	ed 83       	std	Y+5, r30	; 0x05
    77b8:	9f 01       	movw	r18, r30
    77ba:	22 0f       	add	r18, r18
    77bc:	33 1f       	adc	r19, r19
    77be:	22 0f       	add	r18, r18
    77c0:	33 1f       	adc	r19, r19
		if(delta >= 0)
    77c2:	f7 fc       	sbrc	r15, 7
    77c4:	0f c0       	rjmp	.+30     	; 0x77e4 <LCD_DrawCircle+0x176>
		{
			y--;
    77c6:	08 94       	sec
    77c8:	a1 08       	sbc	r10, r1
    77ca:	b1 08       	sbc	r11, r1
			tmp = (x << 2);
			tmp -= (y << 2);
			delta += (tmp + 10);
    77cc:	8a e0       	ldi	r24, 0x0A	; 10
    77ce:	90 e0       	ldi	r25, 0x00	; 0
    77d0:	e8 0e       	add	r14, r24
    77d2:	f9 1e       	adc	r15, r25
    77d4:	c5 01       	movw	r24, r10
    77d6:	88 0f       	add	r24, r24
    77d8:	99 1f       	adc	r25, r25
    77da:	88 0f       	add	r24, r24
    77dc:	99 1f       	adc	r25, r25
    77de:	28 1b       	sub	r18, r24
    77e0:	39 0b       	sbc	r19, r25
    77e2:	04 c0       	rjmp	.+8      	; 0x77ec <LCD_DrawCircle+0x17e>
		}
		else
		{
			delta += ((x << 2) + 6);
    77e4:	e6 e0       	ldi	r30, 0x06	; 6
    77e6:	f0 e0       	ldi	r31, 0x00	; 0
    77e8:	ee 0e       	add	r14, r30
    77ea:	ff 1e       	adc	r15, r31
    77ec:	e2 0e       	add	r14, r18
    77ee:	f3 1e       	adc	r15, r19
    77f0:	8b 81       	ldd	r24, Y+3	; 0x03
    77f2:	9c 81       	ldd	r25, Y+4	; 0x04
    77f4:	01 96       	adiw	r24, 0x01	; 1
    77f6:	9c 83       	std	Y+4, r25	; 0x04
    77f8:	8b 83       	std	Y+3, r24	; 0x03
    77fa:	e9 81       	ldd	r30, Y+1	; 0x01
    77fc:	fa 81       	ldd	r31, Y+2	; 0x02
    77fe:	31 97       	sbiw	r30, 0x01	; 1
    7800:	fa 83       	std	Y+2, r31	; 0x02
    7802:	e9 83       	std	Y+1, r30	; 0x01
    7804:	08 94       	sec
    7806:	21 1c       	adc	r2, r1
    7808:	31 1c       	adc	r3, r1
    780a:	08 94       	sec
    780c:	41 08       	sbc	r4, r1
    780e:	51 08       	sbc	r5, r1
	int16_t delta,tmp;
	x = 0;
	y = Radius;
	delta = 3 - (Radius << 1);

	while(y >= x)
    7810:	8d 81       	ldd	r24, Y+5	; 0x05
    7812:	9e 81       	ldd	r25, Y+6	; 0x06
    7814:	a8 16       	cp	r10, r24
    7816:	b9 06       	cpc	r11, r25
    7818:	08 f0       	brcs	.+2      	; 0x781c <LCD_DrawCircle+0x1ae>
    781a:	5d cf       	rjmp	.-326    	; 0x76d6 <LCD_DrawCircle+0x68>
		else
		{
			delta += ((x << 2) + 6);
		}
	}
}
    781c:	2d 96       	adiw	r28, 0x0d	; 13
    781e:	0f b6       	in	r0, 0x3f	; 63
    7820:	f8 94       	cli
    7822:	de bf       	out	0x3e, r29	; 62
    7824:	0f be       	out	0x3f, r0	; 63
    7826:	cd bf       	out	0x3d, r28	; 61
    7828:	cf 91       	pop	r28
    782a:	df 91       	pop	r29
    782c:	1f 91       	pop	r17
    782e:	0f 91       	pop	r16
    7830:	ff 90       	pop	r15
    7832:	ef 90       	pop	r14
    7834:	df 90       	pop	r13
    7836:	cf 90       	pop	r12
    7838:	bf 90       	pop	r11
    783a:	af 90       	pop	r10
    783c:	9f 90       	pop	r9
    783e:	8f 90       	pop	r8
    7840:	7f 90       	pop	r7
    7842:	6f 90       	pop	r6
    7844:	5f 90       	pop	r5
    7846:	4f 90       	pop	r4
    7848:	3f 90       	pop	r3
    784a:	2f 90       	pop	r2
    784c:	08 95       	ret

0000784e <LCD_WriteKorean>:
* @param	COLOR Color	:     
* @param	COLOR BG_Color	:     
* @return	void			
*/
void LCD_WriteKorean(uint16_t SX, uint16_t SY, uint16_t Data, COLOR Color, COLOR BG_Color)
{
    784e:	4f 92       	push	r4
    7850:	5f 92       	push	r5
    7852:	6f 92       	push	r6
    7854:	7f 92       	push	r7
    7856:	8f 92       	push	r8
    7858:	9f 92       	push	r9
    785a:	af 92       	push	r10
    785c:	bf 92       	push	r11
    785e:	df 92       	push	r13
    7860:	ef 92       	push	r14
    7862:	ff 92       	push	r15
    7864:	0f 93       	push	r16
    7866:	1f 93       	push	r17
    7868:	cf 93       	push	r28
    786a:	df 93       	push	r29
    786c:	dc 01       	movw	r26, r24
    786e:	7b 01       	movw	r14, r22
    7870:	29 01       	movw	r4, r18
    7872:	38 01       	movw	r6, r16
    7874:	69 ef       	ldi	r22, 0xF9	; 249
    7876:	72 e0       	ldi	r23, 0x02	; 2
    7878:	20 e0       	ldi	r18, 0x00	; 0
    787a:	30 e0       	ldi	r19, 0x00	; 0
	uint16_t mid;
	uint16_t tmp;

	while (left <= right) 
	{
		mid = (right + left) / 2;
    787c:	e9 01       	movw	r28, r18
    787e:	c6 0f       	add	r28, r22
    7880:	d7 1f       	adc	r29, r23
    7882:	d6 95       	lsr	r29
    7884:	c7 95       	ror	r28
		tmp = pgm_read_word(&KorFont_IndexTable[mid]);
    7886:	fe 01       	movw	r30, r28
    7888:	ee 0f       	add	r30, r30
    788a:	ff 1f       	adc	r31, r31
    788c:	e4 55       	subi	r30, 0x54	; 84
    788e:	f9 49       	sbci	r31, 0x99	; 153
    7890:	85 91       	lpm	r24, Z+
    7892:	94 91       	lpm	r25, Z+
		if (tmp == Code)
    7894:	84 17       	cp	r24, r20
    7896:	95 07       	cpc	r25, r21
    7898:	71 f0       	breq	.+28     	; 0x78b6 <LCD_WriteKorean+0x68>
			return mid;

		if (Code < tmp)
    789a:	48 17       	cp	r20, r24
    789c:	59 07       	cpc	r21, r25
    789e:	20 f4       	brcc	.+8      	; 0x78a8 <LCD_WriteKorean+0x5a>
			right = mid - 1;
    78a0:	be 01       	movw	r22, r28
    78a2:	61 50       	subi	r22, 0x01	; 1
    78a4:	70 40       	sbci	r23, 0x00	; 0
    78a6:	03 c0       	rjmp	.+6      	; 0x78ae <LCD_WriteKorean+0x60>
		else
			left = mid + 1;
    78a8:	9e 01       	movw	r18, r28
    78aa:	2f 5f       	subi	r18, 0xFF	; 255
    78ac:	3f 4f       	sbci	r19, 0xFF	; 255
	uint16_t left = 0;
	uint16_t right = sizeof(KorFont_IndexTable)/sizeof(uint16_t);
	uint16_t mid;
	uint16_t tmp;

	while (left <= right) 
    78ae:	62 17       	cp	r22, r18
    78b0:	73 07       	cpc	r23, r19
    78b2:	20 f7       	brcc	.-56     	; 0x787c <LCD_WriteKorean+0x2e>
    78b4:	3d c0       	rjmp	.+122    	; 0x7930 <LCD_WriteKorean+0xe2>
        return;
    }

	Index = Index * LCD_FONT_KOR_SIZE;	

	LCD_SetAddress(SX, SY, SX + LCD_FONT_KOR_COLUMN - 1, SY + LCD_FONT_KOR_ROW - 1); 	/*    */		
    78b6:	cd 01       	movw	r24, r26
    78b8:	b7 01       	movw	r22, r14
    78ba:	1f 96       	adiw	r26, 0x0f	; 15
    78bc:	ad 01       	movw	r20, r26
    78be:	2f e0       	ldi	r18, 0x0F	; 15
    78c0:	30 e0       	ldi	r19, 0x00	; 0
    78c2:	e2 0e       	add	r14, r18
    78c4:	f3 1e       	adc	r15, r19
    78c6:	97 01       	movw	r18, r14
    78c8:	0e 94 36 39 	call	0x726c	; 0x726c <LCD_SetAddress>
    78cc:	b5 e0       	ldi	r27, 0x05	; 5
    78ce:	cc 0f       	add	r28, r28
    78d0:	dd 1f       	adc	r29, r29
    78d2:	ba 95       	dec	r27
    78d4:	e1 f7       	brne	.-8      	; 0x78ce <LCD_WriteKorean+0x80>
    78d6:	c4 57       	subi	r28, 0x74	; 116
    78d8:	d8 4f       	sbci	r29, 0xF8	; 248
    78da:	dd 24       	eor	r13, r13
		Font = (Font << 8) + pgm_read_byte(&KorFont[j *2 + 1 + Index]);
		
		/*     */
		for(i = 0; i < LCD_FONT_KOR_COLUMN; i++)
		{
			(Font & (0x8000 >> i))? LCD_WriteData(Color): LCD_WriteData(BG_Color);	
    78dc:	81 2c       	mov	r8, r1
    78de:	a0 e8       	ldi	r26, 0x80	; 128
    78e0:	9a 2e       	mov	r9, r26
	LCD_SetAddress(SX, SY, SX + LCD_FONT_KOR_COLUMN - 1, SY + LCD_FONT_KOR_ROW - 1); 	/*    */		

	for(j = 0; j < LCD_FONT_KOR_ROW; j++)
	{
		/* Font   .(    16   2  ) */
		Font = pgm_read_byte(&KorFont[j *2 + Index]);
    78e2:	fe 01       	movw	r30, r28
    78e4:	84 91       	lpm	r24, Z+
		Font = (Font << 8) + pgm_read_byte(&KorFont[j *2 + 1 + Index]);
    78e6:	f8 2e       	mov	r15, r24
    78e8:	ee 24       	eor	r14, r14
    78ea:	21 96       	adiw	r28, 0x01	; 1
    78ec:	fe 01       	movw	r30, r28
    78ee:	84 91       	lpm	r24, Z+
    78f0:	21 97       	sbiw	r28, 0x01	; 1
    78f2:	57 01       	movw	r10, r14
    78f4:	a8 0e       	add	r10, r24
    78f6:	b1 1c       	adc	r11, r1
    78f8:	00 e0       	ldi	r16, 0x00	; 0
    78fa:	10 e0       	ldi	r17, 0x00	; 0
		
		/*     */
		for(i = 0; i < LCD_FONT_KOR_COLUMN; i++)
		{
			(Font & (0x8000 >> i))? LCD_WriteData(Color): LCD_WriteData(BG_Color);	
    78fc:	c4 01       	movw	r24, r8
    78fe:	00 2e       	mov	r0, r16
    7900:	02 c0       	rjmp	.+4      	; 0x7906 <LCD_WriteKorean+0xb8>
    7902:	96 95       	lsr	r25
    7904:	87 95       	ror	r24
    7906:	0a 94       	dec	r0
    7908:	e2 f7       	brpl	.-8      	; 0x7902 <LCD_WriteKorean+0xb4>
    790a:	8a 21       	and	r24, r10
    790c:	9b 21       	and	r25, r11
    790e:	89 2b       	or	r24, r25
    7910:	11 f0       	breq	.+4      	; 0x7916 <LCD_WriteKorean+0xc8>
    7912:	c2 01       	movw	r24, r4
    7914:	01 c0       	rjmp	.+2      	; 0x7918 <LCD_WriteKorean+0xca>
    7916:	c3 01       	movw	r24, r6
    7918:	0e 94 1d 39 	call	0x723a	; 0x723a <LCD_WriteData>
    791c:	0f 5f       	subi	r16, 0xFF	; 255
    791e:	1f 4f       	sbci	r17, 0xFF	; 255
		/* Font   .(    16   2  ) */
		Font = pgm_read_byte(&KorFont[j *2 + Index]);
		Font = (Font << 8) + pgm_read_byte(&KorFont[j *2 + 1 + Index]);
		
		/*     */
		for(i = 0; i < LCD_FONT_KOR_COLUMN; i++)
    7920:	00 31       	cpi	r16, 0x10	; 16
    7922:	11 05       	cpc	r17, r1
    7924:	59 f7       	brne	.-42     	; 0x78fc <LCD_WriteKorean+0xae>

	Index = Index * LCD_FONT_KOR_SIZE;	

	LCD_SetAddress(SX, SY, SX + LCD_FONT_KOR_COLUMN - 1, SY + LCD_FONT_KOR_ROW - 1); 	/*    */		

	for(j = 0; j < LCD_FONT_KOR_ROW; j++)
    7926:	d3 94       	inc	r13
    7928:	22 96       	adiw	r28, 0x02	; 2
    792a:	f0 e1       	ldi	r31, 0x10	; 16
    792c:	df 16       	cp	r13, r31
    792e:	c9 f6       	brne	.-78     	; 0x78e2 <LCD_WriteKorean+0x94>
		for(i = 0; i < LCD_FONT_KOR_COLUMN; i++)
		{
			(Font & (0x8000 >> i))? LCD_WriteData(Color): LCD_WriteData(BG_Color);	
		}		
	}
}
    7930:	df 91       	pop	r29
    7932:	cf 91       	pop	r28
    7934:	1f 91       	pop	r17
    7936:	0f 91       	pop	r16
    7938:	ff 90       	pop	r15
    793a:	ef 90       	pop	r14
    793c:	df 90       	pop	r13
    793e:	bf 90       	pop	r11
    7940:	af 90       	pop	r10
    7942:	9f 90       	pop	r9
    7944:	8f 90       	pop	r8
    7946:	7f 90       	pop	r7
    7948:	6f 90       	pop	r6
    794a:	5f 90       	pop	r5
    794c:	4f 90       	pop	r4
    794e:	08 95       	ret

00007950 <LCD_WriteEnglish>:
* @param	COLOR Color	:     
* @param	COLOR BG_Color	:     
* @return	void			
*/
void LCD_WriteEnglish(uint16_t SX, uint16_t SY, uint8_t Data, COLOR Color, COLOR BG_Color)
{
    7950:	6f 92       	push	r6
    7952:	7f 92       	push	r7
    7954:	8f 92       	push	r8
    7956:	9f 92       	push	r9
    7958:	af 92       	push	r10
    795a:	bf 92       	push	r11
    795c:	cf 92       	push	r12
    795e:	df 92       	push	r13
    7960:	ff 92       	push	r15
    7962:	0f 93       	push	r16
    7964:	1f 93       	push	r17
    7966:	cf 93       	push	r28
    7968:	df 93       	push	r29
    796a:	dc 01       	movw	r26, r24
    796c:	eb 01       	movw	r28, r22
    796e:	e4 2f       	mov	r30, r20
    7970:	49 01       	movw	r8, r18
    7972:	58 01       	movw	r10, r16
	uint8_t i,j, Font;
    uint16_t Index;

    //    .
	Index = pgm_read_byte(&EngFont_IndexTable[Data]);
    7974:	f0 e0       	ldi	r31, 0x00	; 0
    7976:	ee 0f       	add	r30, r30
    7978:	ff 1f       	adc	r31, r31
    797a:	e4 57       	subi	r30, 0x74	; 116
    797c:	f9 4f       	sbci	r31, 0xF9	; 249
    797e:	e4 91       	lpm	r30, Z+
    7980:	0e 2f       	mov	r16, r30
    7982:	10 e0       	ldi	r17, 0x00	; 0
    if(Index == 0xFF)		//   Index   
    7984:	0f 3f       	cpi	r16, 0xFF	; 255
    7986:	11 05       	cpc	r17, r1
    7988:	89 f1       	breq	.+98     	; 0x79ec <LCD_WriteEnglish+0x9c>
        return;
    }

	Index = Index * LCD_FONT_ENG_SIZE;

	LCD_SetAddress(SX, SY, SX + LCD_FONT_ENG_COLUMN - 1, SY + LCD_FONT_ENG_ROW - 1); 	/*    */	
    798a:	17 96       	adiw	r26, 0x07	; 7
    798c:	ad 01       	movw	r20, r26
    798e:	2f 96       	adiw	r28, 0x0f	; 15
    7990:	9e 01       	movw	r18, r28
    7992:	0e 94 36 39 	call	0x726c	; 0x726c <LCD_SetAddress>
    7996:	94 e0       	ldi	r25, 0x04	; 4
    7998:	00 0f       	add	r16, r16
    799a:	11 1f       	adc	r17, r17
    799c:	9a 95       	dec	r25
    799e:	e1 f7       	brne	.-8      	; 0x7998 <LCD_WriteEnglish+0x48>
    79a0:	04 57       	subi	r16, 0x74	; 116
    79a2:	1f 4f       	sbci	r17, 0xFF	; 255
    79a4:	ff 24       	eor	r15, r15
		Font = pgm_read_byte(&EngFont[j + Index]);		/*    */

		/*     */
		for(i = 0; i < LCD_FONT_ENG_COLUMN; i++)
		{
			(Font & (0x80 >> i))? LCD_WriteData(Color): LCD_WriteData(BG_Color);
    79a6:	80 e8       	ldi	r24, 0x80	; 128
    79a8:	68 2e       	mov	r6, r24
    79aa:	71 2c       	mov	r7, r1

	LCD_SetAddress(SX, SY, SX + LCD_FONT_ENG_COLUMN - 1, SY + LCD_FONT_ENG_ROW - 1); 	/*    */	

	for(j = 0; j < LCD_FONT_ENG_ROW; j++)
	{
		Font = pgm_read_byte(&EngFont[j + Index]);		/*    */
    79ac:	f8 01       	movw	r30, r16
    79ae:	84 91       	lpm	r24, Z+
    79b0:	c0 e0       	ldi	r28, 0x00	; 0
    79b2:	d0 e0       	ldi	r29, 0x00	; 0

		/*     */
		for(i = 0; i < LCD_FONT_ENG_COLUMN; i++)
		{
			(Font & (0x80 >> i))? LCD_WriteData(Color): LCD_WriteData(BG_Color);
    79b4:	c8 2e       	mov	r12, r24
    79b6:	dd 24       	eor	r13, r13
    79b8:	c3 01       	movw	r24, r6
    79ba:	0c 2e       	mov	r0, r28
    79bc:	02 c0       	rjmp	.+4      	; 0x79c2 <LCD_WriteEnglish+0x72>
    79be:	95 95       	asr	r25
    79c0:	87 95       	ror	r24
    79c2:	0a 94       	dec	r0
    79c4:	e2 f7       	brpl	.-8      	; 0x79be <LCD_WriteEnglish+0x6e>
    79c6:	8c 21       	and	r24, r12
    79c8:	9d 21       	and	r25, r13
    79ca:	89 2b       	or	r24, r25
    79cc:	11 f0       	breq	.+4      	; 0x79d2 <LCD_WriteEnglish+0x82>
    79ce:	c4 01       	movw	r24, r8
    79d0:	01 c0       	rjmp	.+2      	; 0x79d4 <LCD_WriteEnglish+0x84>
    79d2:	c5 01       	movw	r24, r10
    79d4:	0e 94 1d 39 	call	0x723a	; 0x723a <LCD_WriteData>
    79d8:	21 96       	adiw	r28, 0x01	; 1
	for(j = 0; j < LCD_FONT_ENG_ROW; j++)
	{
		Font = pgm_read_byte(&EngFont[j + Index]);		/*    */

		/*     */
		for(i = 0; i < LCD_FONT_ENG_COLUMN; i++)
    79da:	c8 30       	cpi	r28, 0x08	; 8
    79dc:	d1 05       	cpc	r29, r1
    79de:	61 f7       	brne	.-40     	; 0x79b8 <LCD_WriteEnglish+0x68>

	Index = Index * LCD_FONT_ENG_SIZE;

	LCD_SetAddress(SX, SY, SX + LCD_FONT_ENG_COLUMN - 1, SY + LCD_FONT_ENG_ROW - 1); 	/*    */	

	for(j = 0; j < LCD_FONT_ENG_ROW; j++)
    79e0:	f3 94       	inc	r15
    79e2:	0f 5f       	subi	r16, 0xFF	; 255
    79e4:	1f 4f       	sbci	r17, 0xFF	; 255
    79e6:	f0 e1       	ldi	r31, 0x10	; 16
    79e8:	ff 16       	cp	r15, r31
    79ea:	01 f7       	brne	.-64     	; 0x79ac <LCD_WriteEnglish+0x5c>
		for(i = 0; i < LCD_FONT_ENG_COLUMN; i++)
		{
			(Font & (0x80 >> i))? LCD_WriteData(Color): LCD_WriteData(BG_Color);
		}
	}
}
    79ec:	df 91       	pop	r29
    79ee:	cf 91       	pop	r28
    79f0:	1f 91       	pop	r17
    79f2:	0f 91       	pop	r16
    79f4:	ff 90       	pop	r15
    79f6:	df 90       	pop	r13
    79f8:	cf 90       	pop	r12
    79fa:	bf 90       	pop	r11
    79fc:	af 90       	pop	r10
    79fe:	9f 90       	pop	r9
    7a00:	8f 90       	pop	r8
    7a02:	7f 90       	pop	r7
    7a04:	6f 90       	pop	r6
    7a06:	08 95       	ret

00007a08 <LCD_WriteString>:
* @param	COLOR Color		:     
* @param	COLOR BG_Color	:     
* @return	void			
*/
void LCD_WriteString(uint16_t SX, uint16_t SY,const char *String, COLOR Color, COLOR BG_Color)
{
    7a08:	6f 92       	push	r6
    7a0a:	7f 92       	push	r7
    7a0c:	8f 92       	push	r8
    7a0e:	9f 92       	push	r9
    7a10:	af 92       	push	r10
    7a12:	bf 92       	push	r11
    7a14:	cf 92       	push	r12
    7a16:	df 92       	push	r13
    7a18:	ef 92       	push	r14
    7a1a:	ff 92       	push	r15
    7a1c:	0f 93       	push	r16
    7a1e:	1f 93       	push	r17
    7a20:	cf 93       	push	r28
    7a22:	df 93       	push	r29
    7a24:	6c 01       	movw	r12, r24
    7a26:	3b 01       	movw	r6, r22
    7a28:	ea 01       	movw	r28, r20
    7a2a:	49 01       	movw	r8, r18
    7a2c:	58 01       	movw	r10, r16
    7a2e:	1d c0       	rjmp	.+58     	; 0x7a6a <LCD_WriteString+0x62>
    uint16_t Data;

    while(*(String) != 0)
    {
        //   (  0xB000  .)
        if(*String < 0x80)      // 
    7a30:	47 fd       	sbrc	r20, 7
    7a32:	0a c0       	rjmp	.+20     	; 0x7a48 <LCD_WriteString+0x40>
        {
            Data = *String;
            LCD_WriteEnglish(SX, SY, (unsigned char)Data, Color, BG_Color);
    7a34:	c6 01       	movw	r24, r12
    7a36:	b3 01       	movw	r22, r6
    7a38:	94 01       	movw	r18, r8
    7a3a:	85 01       	movw	r16, r10
    7a3c:	0e 94 a8 3c 	call	0x7950	; 0x7950 <LCD_WriteEnglish>
            String++;
    7a40:	21 96       	adiw	r28, 0x01	; 1
            SX += 8;
    7a42:	88 e0       	ldi	r24, 0x08	; 8
    7a44:	90 e0       	ldi	r25, 0x00	; 0
    7a46:	0f c0       	rjmp	.+30     	; 0x7a66 <LCD_WriteString+0x5e>
        }
        else                    // 
        {
            Data = (*String << 8) + *(String + 1);
            LCD_WriteKorean(SX, SY, Data, Color, BG_Color);
    7a48:	89 81       	ldd	r24, Y+1	; 0x01
    7a4a:	f4 2e       	mov	r15, r20
    7a4c:	ee 24       	eor	r14, r14
    7a4e:	a7 01       	movw	r20, r14
    7a50:	48 0f       	add	r20, r24
    7a52:	51 1d       	adc	r21, r1
    7a54:	c6 01       	movw	r24, r12
    7a56:	b3 01       	movw	r22, r6
    7a58:	94 01       	movw	r18, r8
    7a5a:	85 01       	movw	r16, r10
    7a5c:	0e 94 27 3c 	call	0x784e	; 0x784e <LCD_WriteKorean>
            String += 2;
    7a60:	22 96       	adiw	r28, 0x02	; 2
            SX += 16;
    7a62:	80 e1       	ldi	r24, 0x10	; 16
    7a64:	90 e0       	ldi	r25, 0x00	; 0
    7a66:	c8 0e       	add	r12, r24
    7a68:	d9 1e       	adc	r13, r25
*/
void LCD_WriteString(uint16_t SX, uint16_t SY,const char *String, COLOR Color, COLOR BG_Color)
{
    uint16_t Data;

    while(*(String) != 0)
    7a6a:	48 81       	ld	r20, Y
    7a6c:	44 23       	and	r20, r20
    7a6e:	01 f7       	brne	.-64     	; 0x7a30 <LCD_WriteString+0x28>
            LCD_WriteKorean(SX, SY, Data, Color, BG_Color);
            String += 2;
            SX += 16;
        }
    }
}
    7a70:	df 91       	pop	r29
    7a72:	cf 91       	pop	r28
    7a74:	1f 91       	pop	r17
    7a76:	0f 91       	pop	r16
    7a78:	ff 90       	pop	r15
    7a7a:	ef 90       	pop	r14
    7a7c:	df 90       	pop	r13
    7a7e:	cf 90       	pop	r12
    7a80:	bf 90       	pop	r11
    7a82:	af 90       	pop	r10
    7a84:	9f 90       	pop	r9
    7a86:	8f 90       	pop	r8
    7a88:	7f 90       	pop	r7
    7a8a:	6f 90       	pop	r6
    7a8c:	08 95       	ret

00007a8e <LCD_FillColor>:
* @param	uint16_t LengthY	: Y  
* @param	COLOR Color	:    
* @return	void			
*/
void LCD_FillColor(uint16_t SX, uint16_t SY, uint16_t LengthX, uint16_t LengthY, COLOR Color)
{
    7a8e:	6f 92       	push	r6
    7a90:	7f 92       	push	r7
    7a92:	8f 92       	push	r8
    7a94:	9f 92       	push	r9
    7a96:	af 92       	push	r10
    7a98:	bf 92       	push	r11
    7a9a:	cf 92       	push	r12
    7a9c:	df 92       	push	r13
    7a9e:	ef 92       	push	r14
    7aa0:	ff 92       	push	r15
    7aa2:	0f 93       	push	r16
    7aa4:	1f 93       	push	r17
    7aa6:	4a 01       	movw	r8, r20
    7aa8:	69 01       	movw	r12, r18
    7aaa:	38 01       	movw	r6, r16
	LCD_SetAddress(SX, SY, SX + LengthX - 1, SY + LengthY - 1);		/*    */	
    7aac:	ac 01       	movw	r20, r24
    7aae:	41 50       	subi	r20, 0x01	; 1
    7ab0:	50 40       	sbci	r21, 0x00	; 0
    7ab2:	48 0d       	add	r20, r8
    7ab4:	59 1d       	adc	r21, r9
    7ab6:	9b 01       	movw	r18, r22
    7ab8:	21 50       	subi	r18, 0x01	; 1
    7aba:	30 40       	sbci	r19, 0x00	; 0
    7abc:	2c 0d       	add	r18, r12
    7abe:	3d 1d       	adc	r19, r13
    7ac0:	0e 94 36 39 	call	0x726c	; 0x726c <LCD_SetAddress>
	LCD_WriteDataRepeat(Color, (uint32_t)LengthX * LengthY);		/*   . */	
    7ac4:	ee 24       	eor	r14, r14
    7ac6:	ff 24       	eor	r15, r15
    7ac8:	aa 24       	eor	r10, r10
    7aca:	bb 24       	eor	r11, r11
    7acc:	c7 01       	movw	r24, r14
    7ace:	b6 01       	movw	r22, r12
    7ad0:	a5 01       	movw	r20, r10
    7ad2:	94 01       	movw	r18, r8
    7ad4:	0e 94 c8 43 	call	0x8790	; 0x8790 <__mulsi3>
    7ad8:	7b 01       	movw	r14, r22
    7ada:	8c 01       	movw	r16, r24
{
	uint32_t i;
	uint8_t IntFlag;
	
	//   
	IntFlag = I;
    7adc:	ef b7       	in	r30, 0x3f	; 63
    7ade:	ee 1f       	adc	r30, r30
    7ae0:	ee 27       	eor	r30, r30
    7ae2:	ee 1f       	adc	r30, r30
	I = 0;	
    7ae4:	8f b7       	in	r24, 0x3f	; 63
    7ae6:	8f 77       	andi	r24, 0x7F	; 127
    7ae8:	8f bf       	out	0x3f, r24	; 63

	LCD_RS_DATA;
    7aea:	80 91 65 00 	lds	r24, 0x0065
    7aee:	81 60       	ori	r24, 0x01	; 1
    7af0:	80 93 65 00 	sts	0x0065, r24
	LCD_CS_ENABLE;	
    7af4:	80 91 65 00 	lds	r24, 0x0065
    7af8:	8d 7f       	andi	r24, 0xFD	; 253
    7afa:	80 93 65 00 	sts	0x0065, r24

	for(i = 0; i < Repeat; i++)
	{
		LCD_DATA_OUT(Data);
    7afe:	20 e0       	ldi	r18, 0x00	; 0
    7b00:	30 e0       	ldi	r19, 0x00	; 0
    7b02:	40 e0       	ldi	r20, 0x00	; 0
    7b04:	50 e0       	ldi	r21, 0x00	; 0
    7b06:	08 c0       	rjmp	.+16     	; 0x7b18 <LCD_FillColor+0x8a>
    7b08:	75 ba       	out	0x15, r7	; 21
    7b0a:	6b ba       	out	0x1b, r6	; 27
		LCD_WR_ENABLE;
    7b0c:	97 98       	cbi	0x12, 7	; 18
		LCD_WR_DISABLE;				
    7b0e:	97 9a       	sbi	0x12, 7	; 18
	I = 0;	

	LCD_RS_DATA;
	LCD_CS_ENABLE;	

	for(i = 0; i < Repeat; i++)
    7b10:	2f 5f       	subi	r18, 0xFF	; 255
    7b12:	3f 4f       	sbci	r19, 0xFF	; 255
    7b14:	4f 4f       	sbci	r20, 0xFF	; 255
    7b16:	5f 4f       	sbci	r21, 0xFF	; 255
    7b18:	2e 15       	cp	r18, r14
    7b1a:	3f 05       	cpc	r19, r15
    7b1c:	40 07       	cpc	r20, r16
    7b1e:	51 07       	cpc	r21, r17
    7b20:	98 f3       	brcs	.-26     	; 0x7b08 <LCD_FillColor+0x7a>
	{
		LCD_DATA_OUT(Data);
		LCD_WR_ENABLE;
		LCD_WR_DISABLE;				
	}	
	LCD_CS_DISABLE;	
    7b22:	80 91 65 00 	lds	r24, 0x0065
    7b26:	82 60       	ori	r24, 0x02	; 2
    7b28:	80 93 65 00 	sts	0x0065, r24

	//   
	I = IntFlag;	
    7b2c:	e7 95       	ror	r30
    7b2e:	ee 27       	eor	r30, r30
    7b30:	e7 95       	ror	r30
    7b32:	8f b7       	in	r24, 0x3f	; 63
    7b34:	8f 77       	andi	r24, 0x7F	; 127
    7b36:	8e 2b       	or	r24, r30
    7b38:	8f bf       	out	0x3f, r24	; 63
*/
void LCD_FillColor(uint16_t SX, uint16_t SY, uint16_t LengthX, uint16_t LengthY, COLOR Color)
{
	LCD_SetAddress(SX, SY, SX + LengthX - 1, SY + LengthY - 1);		/*    */	
	LCD_WriteDataRepeat(Color, (uint32_t)LengthX * LengthY);		/*   . */	
}
    7b3a:	1f 91       	pop	r17
    7b3c:	0f 91       	pop	r16
    7b3e:	ff 90       	pop	r15
    7b40:	ef 90       	pop	r14
    7b42:	df 90       	pop	r13
    7b44:	cf 90       	pop	r12
    7b46:	bf 90       	pop	r11
    7b48:	af 90       	pop	r10
    7b4a:	9f 90       	pop	r9
    7b4c:	8f 90       	pop	r8
    7b4e:	7f 90       	pop	r7
    7b50:	6f 90       	pop	r6
    7b52:	08 95       	ret

00007b54 <LCD_ClearScreen>:
* @remarks
* @param	COLOR Color	:    
* @return	void			
*/
void LCD_ClearScreen(COLOR Color)
{	
    7b54:	0f 93       	push	r16
    7b56:	1f 93       	push	r17
    7b58:	8c 01       	movw	r16, r24
	LCD_SetAddress(0, 0, LCD_WIDTH - 1, LCD_HEIGHT - 1);
    7b5a:	80 e0       	ldi	r24, 0x00	; 0
    7b5c:	90 e0       	ldi	r25, 0x00	; 0
    7b5e:	60 e0       	ldi	r22, 0x00	; 0
    7b60:	70 e0       	ldi	r23, 0x00	; 0
    7b62:	4f ee       	ldi	r20, 0xEF	; 239
    7b64:	50 e0       	ldi	r21, 0x00	; 0
    7b66:	2f e3       	ldi	r18, 0x3F	; 63
    7b68:	31 e0       	ldi	r19, 0x01	; 1
    7b6a:	0e 94 36 39 	call	0x726c	; 0x726c <LCD_SetAddress>
{
	uint32_t i;
	uint8_t IntFlag;
	
	//   
	IntFlag = I;
    7b6e:	2f b7       	in	r18, 0x3f	; 63
    7b70:	22 1f       	adc	r18, r18
    7b72:	22 27       	eor	r18, r18
    7b74:	22 1f       	adc	r18, r18
	I = 0;	
    7b76:	8f b7       	in	r24, 0x3f	; 63
    7b78:	8f 77       	andi	r24, 0x7F	; 127
    7b7a:	8f bf       	out	0x3f, r24	; 63

	LCD_RS_DATA;
    7b7c:	80 91 65 00 	lds	r24, 0x0065
    7b80:	81 60       	ori	r24, 0x01	; 1
    7b82:	80 93 65 00 	sts	0x0065, r24
	LCD_CS_ENABLE;	
    7b86:	80 91 65 00 	lds	r24, 0x0065
    7b8a:	8d 7f       	andi	r24, 0xFD	; 253
    7b8c:	80 93 65 00 	sts	0x0065, r24

	for(i = 0; i < Repeat; i++)
	{
		LCD_DATA_OUT(Data);
    7b90:	80 e0       	ldi	r24, 0x00	; 0
    7b92:	90 e0       	ldi	r25, 0x00	; 0
    7b94:	a0 e0       	ldi	r26, 0x00	; 0
    7b96:	b0 e0       	ldi	r27, 0x00	; 0
    7b98:	15 bb       	out	0x15, r17	; 21
    7b9a:	0b bb       	out	0x1b, r16	; 27
		LCD_WR_ENABLE;
    7b9c:	97 98       	cbi	0x12, 7	; 18
		LCD_WR_DISABLE;				
    7b9e:	97 9a       	sbi	0x12, 7	; 18
	I = 0;	

	LCD_RS_DATA;
	LCD_CS_ENABLE;	

	for(i = 0; i < Repeat; i++)
    7ba0:	01 96       	adiw	r24, 0x01	; 1
    7ba2:	a1 1d       	adc	r26, r1
    7ba4:	b1 1d       	adc	r27, r1
    7ba6:	80 30       	cpi	r24, 0x00	; 0
    7ba8:	3c e2       	ldi	r19, 0x2C	; 44
    7baa:	93 07       	cpc	r25, r19
    7bac:	31 e0       	ldi	r19, 0x01	; 1
    7bae:	a3 07       	cpc	r26, r19
    7bb0:	30 e0       	ldi	r19, 0x00	; 0
    7bb2:	b3 07       	cpc	r27, r19
    7bb4:	89 f7       	brne	.-30     	; 0x7b98 <LCD_ClearScreen+0x44>
	{
		LCD_DATA_OUT(Data);
		LCD_WR_ENABLE;
		LCD_WR_DISABLE;				
	}	
	LCD_CS_DISABLE;	
    7bb6:	80 91 65 00 	lds	r24, 0x0065
    7bba:	82 60       	ori	r24, 0x02	; 2
    7bbc:	80 93 65 00 	sts	0x0065, r24

	//   
	I = IntFlag;	
    7bc0:	27 95       	ror	r18
    7bc2:	22 27       	eor	r18, r18
    7bc4:	27 95       	ror	r18
    7bc6:	8f b7       	in	r24, 0x3f	; 63
    7bc8:	8f 77       	andi	r24, 0x7F	; 127
    7bca:	82 2b       	or	r24, r18
    7bcc:	8f bf       	out	0x3f, r24	; 63
*/
void LCD_ClearScreen(COLOR Color)
{	
	LCD_SetAddress(0, 0, LCD_WIDTH - 1, LCD_HEIGHT - 1);
	LCD_WriteDataRepeat(Color, (uint32_t)LCD_WIDTH * LCD_HEIGHT);					//   . 	
}
    7bce:	1f 91       	pop	r17
    7bd0:	0f 91       	pop	r16
    7bd2:	08 95       	ret

00007bd4 <LCD_msDelay>:
* @remarks
* @param	uint16_t Delay		:  
* @return	void			
*/
static void LCD_msDelay(uint16_t Delay)
{
    7bd4:	40 e0       	ldi	r20, 0x00	; 0
    7bd6:	50 e0       	ldi	r21, 0x00	; 0
    7bd8:	26 c0       	rjmp	.+76     	; 0x7c26 <LCD_msDelay+0x52>
	register uint16_t i;
	
	for(i = 0; i < Delay; i++) 
    7bda:	20 e0       	ldi	r18, 0x00	; 0
    7bdc:	30 e0       	ldi	r19, 0x00	; 0
	register uint16_t i;
	
	for(i = 0; i < Delay; i++) 		// 4Cycle+
	{

		asm volatile(" PUSH R0 "); 	// 2Cycle+
    7bde:	0f 92       	push	r0
		asm volatile(" POP R0 "); 	// 2Cycle+ = 8Cycle = 1us
    7be0:	0f 90       	pop	r0
*/
static void LCD_usDelay(uint16_t Delay)
{
	register uint16_t i;
	
	for(i = 0; i < Delay; i++) 		// 4Cycle+
    7be2:	2f 5f       	subi	r18, 0xFF	; 255
    7be4:	3f 4f       	sbci	r19, 0xFF	; 255
    7be6:	2a 3f       	cpi	r18, 0xFA	; 250
    7be8:	31 05       	cpc	r19, r1
    7bea:	c9 f7       	brne	.-14     	; 0x7bde <LCD_msDelay+0xa>
    7bec:	20 e0       	ldi	r18, 0x00	; 0
    7bee:	30 e0       	ldi	r19, 0x00	; 0
	{

		asm volatile(" PUSH R0 "); 	// 2Cycle+
    7bf0:	0f 92       	push	r0
		asm volatile(" POP R0 "); 	// 2Cycle+ = 8Cycle = 1us
    7bf2:	0f 90       	pop	r0
*/
static void LCD_usDelay(uint16_t Delay)
{
	register uint16_t i;
	
	for(i = 0; i < Delay; i++) 		// 4Cycle+
    7bf4:	2f 5f       	subi	r18, 0xFF	; 255
    7bf6:	3f 4f       	sbci	r19, 0xFF	; 255
    7bf8:	2a 3f       	cpi	r18, 0xFA	; 250
    7bfa:	31 05       	cpc	r19, r1
    7bfc:	c9 f7       	brne	.-14     	; 0x7bf0 <LCD_msDelay+0x1c>
    7bfe:	20 e0       	ldi	r18, 0x00	; 0
    7c00:	30 e0       	ldi	r19, 0x00	; 0
	{

		asm volatile(" PUSH R0 "); 	// 2Cycle+
    7c02:	0f 92       	push	r0
		asm volatile(" POP R0 "); 	// 2Cycle+ = 8Cycle = 1us
    7c04:	0f 90       	pop	r0
*/
static void LCD_usDelay(uint16_t Delay)
{
	register uint16_t i;
	
	for(i = 0; i < Delay; i++) 		// 4Cycle+
    7c06:	2f 5f       	subi	r18, 0xFF	; 255
    7c08:	3f 4f       	sbci	r19, 0xFF	; 255
    7c0a:	2a 3f       	cpi	r18, 0xFA	; 250
    7c0c:	31 05       	cpc	r19, r1
    7c0e:	c9 f7       	brne	.-14     	; 0x7c02 <LCD_msDelay+0x2e>
    7c10:	20 e0       	ldi	r18, 0x00	; 0
    7c12:	30 e0       	ldi	r19, 0x00	; 0
	{

		asm volatile(" PUSH R0 "); 	// 2Cycle+
    7c14:	0f 92       	push	r0
		asm volatile(" POP R0 "); 	// 2Cycle+ = 8Cycle = 1us
    7c16:	0f 90       	pop	r0
*/
static void LCD_usDelay(uint16_t Delay)
{
	register uint16_t i;
	
	for(i = 0; i < Delay; i++) 		// 4Cycle+
    7c18:	2f 5f       	subi	r18, 0xFF	; 255
    7c1a:	3f 4f       	sbci	r19, 0xFF	; 255
    7c1c:	2a 3f       	cpi	r18, 0xFA	; 250
    7c1e:	31 05       	cpc	r19, r1
    7c20:	c9 f7       	brne	.-14     	; 0x7c14 <LCD_msDelay+0x40>
*/
static void LCD_msDelay(uint16_t Delay)
{
	register uint16_t i;
	
	for(i = 0; i < Delay; i++) 
    7c22:	4f 5f       	subi	r20, 0xFF	; 255
    7c24:	5f 4f       	sbci	r21, 0xFF	; 255
    7c26:	48 17       	cp	r20, r24
    7c28:	59 07       	cpc	r21, r25
    7c2a:	b8 f2       	brcs	.-82     	; 0x7bda <LCD_msDelay+0x6>
		LCD_usDelay(250); // 250us+
		LCD_usDelay(250); // 250us+
		LCD_usDelay(250); // 250us * 4 = 1ms
	}

}
    7c2c:	08 95       	ret

00007c2e <LCD_Init>:
* @remarks
* @param	void
* @return	void			
*/
void LCD_Init(void)
{
    7c2e:	1f 93       	push	r17
	/* Backlight   */
	LCD_BL_ACTIVE;
    7c30:	13 9a       	sbi	0x02, 3	; 2
	LCD_BL_ON;
    7c32:	1b 9a       	sbi	0x03, 3	; 3


	//   
	LCD_CS_DISABLE;
    7c34:	e5 e6       	ldi	r30, 0x65	; 101
    7c36:	f0 e0       	ldi	r31, 0x00	; 0
    7c38:	80 81       	ld	r24, Z
    7c3a:	82 60       	ori	r24, 0x02	; 2
    7c3c:	80 83       	st	Z, r24
	LCD_RS_INSTRUCTION;
    7c3e:	80 81       	ld	r24, Z
    7c40:	8e 7f       	andi	r24, 0xFE	; 254
    7c42:	80 83       	st	Z, r24
	LCD_WR_DISABLE;
    7c44:	97 9a       	sbi	0x12, 7	; 18
	LCD_RD_DISABLE;	
    7c46:	96 9a       	sbi	0x12, 6	; 18
	
	LCD_CS_ACTIVE;
    7c48:	e4 e6       	ldi	r30, 0x64	; 100
    7c4a:	f0 e0       	ldi	r31, 0x00	; 0
    7c4c:	80 81       	ld	r24, Z
    7c4e:	82 60       	ori	r24, 0x02	; 2
    7c50:	80 83       	st	Z, r24
	LCD_RS_ACTIVE;
    7c52:	80 81       	ld	r24, Z
    7c54:	81 60       	ori	r24, 0x01	; 1
    7c56:	80 83       	st	Z, r24
	LCD_WR_ACTIVE;
    7c58:	8f 9a       	sbi	0x11, 7	; 17
	LCD_RD_ACTIVE;
    7c5a:	8e 9a       	sbi	0x11, 6	; 17
	
	LCD_DATA_SET_OUT;
    7c5c:	8f ef       	ldi	r24, 0xFF	; 255
    7c5e:	8a bb       	out	0x1a, r24	; 26
    7c60:	84 bb       	out	0x14, r24	; 20
static void LCD_Reset(void)
{
	uint8_t IntFlag;
	
	//   
	IntFlag = I;
    7c62:	1f b7       	in	r17, 0x3f	; 63
    7c64:	11 1f       	adc	r17, r17
    7c66:	11 27       	eor	r17, r17
    7c68:	11 1f       	adc	r17, r17
	I = 0;
    7c6a:	8f b7       	in	r24, 0x3f	; 63
    7c6c:	8f 77       	andi	r24, 0x7F	; 127
    7c6e:	8f bf       	out	0x3f, r24	; 63
		
	LCD_RESET_DISABLE;
    7c70:	95 9a       	sbi	0x12, 5	; 18
	LCD_RESET_ACTIVE;
    7c72:	8d 9a       	sbi	0x11, 5	; 17
	LCD_msDelay(5);
    7c74:	85 e0       	ldi	r24, 0x05	; 5
    7c76:	90 e0       	ldi	r25, 0x00	; 0
    7c78:	0e 94 ea 3d 	call	0x7bd4	; 0x7bd4 <LCD_msDelay>
	LCD_RESET_ENABLE;
    7c7c:	95 98       	cbi	0x12, 5	; 18
	LCD_msDelay(5);
    7c7e:	85 e0       	ldi	r24, 0x05	; 5
    7c80:	90 e0       	ldi	r25, 0x00	; 0
    7c82:	0e 94 ea 3d 	call	0x7bd4	; 0x7bd4 <LCD_msDelay>
	LCD_RESET_DISABLE;
    7c86:	95 9a       	sbi	0x12, 5	; 18
	LCD_msDelay(5);
    7c88:	85 e0       	ldi	r24, 0x05	; 5
    7c8a:	90 e0       	ldi	r25, 0x00	; 0
    7c8c:	0e 94 ea 3d 	call	0x7bd4	; 0x7bd4 <LCD_msDelay>

	//   
	I = IntFlag;		
    7c90:	17 95       	ror	r17
    7c92:	11 27       	eor	r17, r17
    7c94:	17 95       	ror	r17
    7c96:	8f b7       	in	r24, 0x3f	; 63
    7c98:	8f 77       	andi	r24, 0x7F	; 127
    7c9a:	81 2b       	or	r24, r17
    7c9c:	8f bf       	out	0x3f, r24	; 63

	LCD_Reset();


//************* Start Initial Sequence **********//		
	LCD_WriteInstruction(0x00E5);	LCD_WriteData(0x78F0); 
    7c9e:	85 ee       	ldi	r24, 0xE5	; 229
    7ca0:	90 e0       	ldi	r25, 0x00	; 0
    7ca2:	0e 94 04 39 	call	0x7208	; 0x7208 <LCD_WriteInstruction>
    7ca6:	80 ef       	ldi	r24, 0xF0	; 240
    7ca8:	98 e7       	ldi	r25, 0x78	; 120
    7caa:	0e 94 1d 39 	call	0x723a	; 0x723a <LCD_WriteData>
	LCD_WriteInstruction(0x0001);	LCD_WriteData(0x0000); 		// Org : 0x0100,  0x0000 : /  (SS)
    7cae:	81 e0       	ldi	r24, 0x01	; 1
    7cb0:	90 e0       	ldi	r25, 0x00	; 0
    7cb2:	0e 94 04 39 	call	0x7208	; 0x7208 <LCD_WriteInstruction>
    7cb6:	80 e0       	ldi	r24, 0x00	; 0
    7cb8:	90 e0       	ldi	r25, 0x00	; 0
    7cba:	0e 94 1d 39 	call	0x723a	; 0x723a <LCD_WriteData>
	LCD_WriteInstruction(0x0002);	LCD_WriteData(0x0700); 
    7cbe:	82 e0       	ldi	r24, 0x02	; 2
    7cc0:	90 e0       	ldi	r25, 0x00	; 0
    7cc2:	0e 94 04 39 	call	0x7208	; 0x7208 <LCD_WriteInstruction>
    7cc6:	80 e0       	ldi	r24, 0x00	; 0
    7cc8:	97 e0       	ldi	r25, 0x07	; 7
    7cca:	0e 94 1d 39 	call	0x723a	; 0x723a <LCD_WriteData>
	LCD_WriteInstruction(0x0003);	LCD_WriteData(0x1030); 
    7cce:	83 e0       	ldi	r24, 0x03	; 3
    7cd0:	90 e0       	ldi	r25, 0x00	; 0
    7cd2:	0e 94 04 39 	call	0x7208	; 0x7208 <LCD_WriteInstruction>
    7cd6:	80 e3       	ldi	r24, 0x30	; 48
    7cd8:	90 e1       	ldi	r25, 0x10	; 16
    7cda:	0e 94 1d 39 	call	0x723a	; 0x723a <LCD_WriteData>
	LCD_WriteInstruction(0x0004);	LCD_WriteData(0x0000); 
    7cde:	84 e0       	ldi	r24, 0x04	; 4
    7ce0:	90 e0       	ldi	r25, 0x00	; 0
    7ce2:	0e 94 04 39 	call	0x7208	; 0x7208 <LCD_WriteInstruction>
    7ce6:	80 e0       	ldi	r24, 0x00	; 0
    7ce8:	90 e0       	ldi	r25, 0x00	; 0
    7cea:	0e 94 1d 39 	call	0x723a	; 0x723a <LCD_WriteData>
	LCD_WriteInstruction(0x0008);	LCD_WriteData(0x0202);  
    7cee:	88 e0       	ldi	r24, 0x08	; 8
    7cf0:	90 e0       	ldi	r25, 0x00	; 0
    7cf2:	0e 94 04 39 	call	0x7208	; 0x7208 <LCD_WriteInstruction>
    7cf6:	82 e0       	ldi	r24, 0x02	; 2
    7cf8:	92 e0       	ldi	r25, 0x02	; 2
    7cfa:	0e 94 1d 39 	call	0x723a	; 0x723a <LCD_WriteData>
	LCD_WriteInstruction(0x0009);	LCD_WriteData(0x0000);
    7cfe:	89 e0       	ldi	r24, 0x09	; 9
    7d00:	90 e0       	ldi	r25, 0x00	; 0
    7d02:	0e 94 04 39 	call	0x7208	; 0x7208 <LCD_WriteInstruction>
    7d06:	80 e0       	ldi	r24, 0x00	; 0
    7d08:	90 e0       	ldi	r25, 0x00	; 0
    7d0a:	0e 94 1d 39 	call	0x723a	; 0x723a <LCD_WriteData>
	LCD_WriteInstruction(0x000A);	LCD_WriteData(0x0000); 
    7d0e:	8a e0       	ldi	r24, 0x0A	; 10
    7d10:	90 e0       	ldi	r25, 0x00	; 0
    7d12:	0e 94 04 39 	call	0x7208	; 0x7208 <LCD_WriteInstruction>
    7d16:	80 e0       	ldi	r24, 0x00	; 0
    7d18:	90 e0       	ldi	r25, 0x00	; 0
    7d1a:	0e 94 1d 39 	call	0x723a	; 0x723a <LCD_WriteData>
	LCD_WriteInstruction(0x000C);	LCD_WriteData(0x0000); 
    7d1e:	8c e0       	ldi	r24, 0x0C	; 12
    7d20:	90 e0       	ldi	r25, 0x00	; 0
    7d22:	0e 94 04 39 	call	0x7208	; 0x7208 <LCD_WriteInstruction>
    7d26:	80 e0       	ldi	r24, 0x00	; 0
    7d28:	90 e0       	ldi	r25, 0x00	; 0
    7d2a:	0e 94 1d 39 	call	0x723a	; 0x723a <LCD_WriteData>
	LCD_WriteInstruction(0x000D);	LCD_WriteData(0x0000);
    7d2e:	8d e0       	ldi	r24, 0x0D	; 13
    7d30:	90 e0       	ldi	r25, 0x00	; 0
    7d32:	0e 94 04 39 	call	0x7208	; 0x7208 <LCD_WriteInstruction>
    7d36:	80 e0       	ldi	r24, 0x00	; 0
    7d38:	90 e0       	ldi	r25, 0x00	; 0
    7d3a:	0e 94 1d 39 	call	0x723a	; 0x723a <LCD_WriteData>
	LCD_WriteInstruction(0x000F);	LCD_WriteData(0x0000);
    7d3e:	8f e0       	ldi	r24, 0x0F	; 15
    7d40:	90 e0       	ldi	r25, 0x00	; 0
    7d42:	0e 94 04 39 	call	0x7208	; 0x7208 <LCD_WriteInstruction>
    7d46:	80 e0       	ldi	r24, 0x00	; 0
    7d48:	90 e0       	ldi	r25, 0x00	; 0
    7d4a:	0e 94 1d 39 	call	0x723a	; 0x723a <LCD_WriteData>
	//power on sequence VGHVGL
	LCD_WriteInstruction(0x0010);	LCD_WriteData(0x0000);   
    7d4e:	80 e1       	ldi	r24, 0x10	; 16
    7d50:	90 e0       	ldi	r25, 0x00	; 0
    7d52:	0e 94 04 39 	call	0x7208	; 0x7208 <LCD_WriteInstruction>
    7d56:	80 e0       	ldi	r24, 0x00	; 0
    7d58:	90 e0       	ldi	r25, 0x00	; 0
    7d5a:	0e 94 1d 39 	call	0x723a	; 0x723a <LCD_WriteData>
	LCD_WriteInstruction(0x0011);	LCD_WriteData(0x0007);  
    7d5e:	81 e1       	ldi	r24, 0x11	; 17
    7d60:	90 e0       	ldi	r25, 0x00	; 0
    7d62:	0e 94 04 39 	call	0x7208	; 0x7208 <LCD_WriteInstruction>
    7d66:	87 e0       	ldi	r24, 0x07	; 7
    7d68:	90 e0       	ldi	r25, 0x00	; 0
    7d6a:	0e 94 1d 39 	call	0x723a	; 0x723a <LCD_WriteData>
	LCD_WriteInstruction(0x0012);	LCD_WriteData(0x0000);  
    7d6e:	82 e1       	ldi	r24, 0x12	; 18
    7d70:	90 e0       	ldi	r25, 0x00	; 0
    7d72:	0e 94 04 39 	call	0x7208	; 0x7208 <LCD_WriteInstruction>
    7d76:	80 e0       	ldi	r24, 0x00	; 0
    7d78:	90 e0       	ldi	r25, 0x00	; 0
    7d7a:	0e 94 1d 39 	call	0x723a	; 0x723a <LCD_WriteData>
	LCD_WriteInstruction(0x0013);	LCD_WriteData(0x0000); 
    7d7e:	83 e1       	ldi	r24, 0x13	; 19
    7d80:	90 e0       	ldi	r25, 0x00	; 0
    7d82:	0e 94 04 39 	call	0x7208	; 0x7208 <LCD_WriteInstruction>
    7d86:	80 e0       	ldi	r24, 0x00	; 0
    7d88:	90 e0       	ldi	r25, 0x00	; 0
    7d8a:	0e 94 1d 39 	call	0x723a	; 0x723a <LCD_WriteData>
	LCD_WriteInstruction(0x0007);	LCD_WriteData(0x0000); 
    7d8e:	87 e0       	ldi	r24, 0x07	; 7
    7d90:	90 e0       	ldi	r25, 0x00	; 0
    7d92:	0e 94 04 39 	call	0x7208	; 0x7208 <LCD_WriteInstruction>
    7d96:	80 e0       	ldi	r24, 0x00	; 0
    7d98:	90 e0       	ldi	r25, 0x00	; 0
    7d9a:	0e 94 1d 39 	call	0x723a	; 0x723a <LCD_WriteData>
	//vgh 
	LCD_WriteInstruction(0x0010);	LCD_WriteData(0x1690);   
    7d9e:	80 e1       	ldi	r24, 0x10	; 16
    7da0:	90 e0       	ldi	r25, 0x00	; 0
    7da2:	0e 94 04 39 	call	0x7208	; 0x7208 <LCD_WriteInstruction>
    7da6:	80 e9       	ldi	r24, 0x90	; 144
    7da8:	96 e1       	ldi	r25, 0x16	; 22
    7daa:	0e 94 1d 39 	call	0x723a	; 0x723a <LCD_WriteData>
	LCD_WriteInstruction(0x0011);	LCD_WriteData(0x0227);
    7dae:	81 e1       	ldi	r24, 0x11	; 17
    7db0:	90 e0       	ldi	r25, 0x00	; 0
    7db2:	0e 94 04 39 	call	0x7208	; 0x7208 <LCD_WriteInstruction>
    7db6:	87 e2       	ldi	r24, 0x27	; 39
    7db8:	92 e0       	ldi	r25, 0x02	; 2
    7dba:	0e 94 1d 39 	call	0x723a	; 0x723a <LCD_WriteData>
	//delay_ms(100);
	//vregiout 
	LCD_WriteInstruction(0x0012);	LCD_WriteData(0x009D); //0x001b
    7dbe:	82 e1       	ldi	r24, 0x12	; 18
    7dc0:	90 e0       	ldi	r25, 0x00	; 0
    7dc2:	0e 94 04 39 	call	0x7208	; 0x7208 <LCD_WriteInstruction>
    7dc6:	8d e9       	ldi	r24, 0x9D	; 157
    7dc8:	90 e0       	ldi	r25, 0x00	; 0
    7dca:	0e 94 1d 39 	call	0x723a	; 0x723a <LCD_WriteData>
	//delay_ms(100); 
	//vom amplitude
	LCD_WriteInstruction(0x0013);	LCD_WriteData(0x1900);
    7dce:	83 e1       	ldi	r24, 0x13	; 19
    7dd0:	90 e0       	ldi	r25, 0x00	; 0
    7dd2:	0e 94 04 39 	call	0x7208	; 0x7208 <LCD_WriteInstruction>
    7dd6:	80 e0       	ldi	r24, 0x00	; 0
    7dd8:	99 e1       	ldi	r25, 0x19	; 25
    7dda:	0e 94 1d 39 	call	0x723a	; 0x723a <LCD_WriteData>
	//delay_ms(100); 
	//vom H
	LCD_WriteInstruction(0x0029);	LCD_WriteData(0x0025); 
    7dde:	89 e2       	ldi	r24, 0x29	; 41
    7de0:	90 e0       	ldi	r25, 0x00	; 0
    7de2:	0e 94 04 39 	call	0x7208	; 0x7208 <LCD_WriteInstruction>
    7de6:	85 e2       	ldi	r24, 0x25	; 37
    7de8:	90 e0       	ldi	r25, 0x00	; 0
    7dea:	0e 94 1d 39 	call	0x723a	; 0x723a <LCD_WriteData>
	LCD_WriteInstruction(0x002B);	LCD_WriteData(0x000D); 
    7dee:	8b e2       	ldi	r24, 0x2B	; 43
    7df0:	90 e0       	ldi	r25, 0x00	; 0
    7df2:	0e 94 04 39 	call	0x7208	; 0x7208 <LCD_WriteInstruction>
    7df6:	8d e0       	ldi	r24, 0x0D	; 13
    7df8:	90 e0       	ldi	r25, 0x00	; 0
    7dfa:	0e 94 1d 39 	call	0x723a	; 0x723a <LCD_WriteData>
	//gamma
	LCD_WriteInstruction(0x0030);	LCD_WriteData(0x0007);
    7dfe:	80 e3       	ldi	r24, 0x30	; 48
    7e00:	90 e0       	ldi	r25, 0x00	; 0
    7e02:	0e 94 04 39 	call	0x7208	; 0x7208 <LCD_WriteInstruction>
    7e06:	87 e0       	ldi	r24, 0x07	; 7
    7e08:	90 e0       	ldi	r25, 0x00	; 0
    7e0a:	0e 94 1d 39 	call	0x723a	; 0x723a <LCD_WriteData>
	LCD_WriteInstruction(0x0031);	LCD_WriteData(0x0303);
    7e0e:	81 e3       	ldi	r24, 0x31	; 49
    7e10:	90 e0       	ldi	r25, 0x00	; 0
    7e12:	0e 94 04 39 	call	0x7208	; 0x7208 <LCD_WriteInstruction>
    7e16:	83 e0       	ldi	r24, 0x03	; 3
    7e18:	93 e0       	ldi	r25, 0x03	; 3
    7e1a:	0e 94 1d 39 	call	0x723a	; 0x723a <LCD_WriteData>
	LCD_WriteInstruction(0x0032);	LCD_WriteData(0x0003);// 0006
    7e1e:	82 e3       	ldi	r24, 0x32	; 50
    7e20:	90 e0       	ldi	r25, 0x00	; 0
    7e22:	0e 94 04 39 	call	0x7208	; 0x7208 <LCD_WriteInstruction>
    7e26:	83 e0       	ldi	r24, 0x03	; 3
    7e28:	90 e0       	ldi	r25, 0x00	; 0
    7e2a:	0e 94 1d 39 	call	0x723a	; 0x723a <LCD_WriteData>
	LCD_WriteInstruction(0x0035);	LCD_WriteData(0x0206);
    7e2e:	85 e3       	ldi	r24, 0x35	; 53
    7e30:	90 e0       	ldi	r25, 0x00	; 0
    7e32:	0e 94 04 39 	call	0x7208	; 0x7208 <LCD_WriteInstruction>
    7e36:	86 e0       	ldi	r24, 0x06	; 6
    7e38:	92 e0       	ldi	r25, 0x02	; 2
    7e3a:	0e 94 1d 39 	call	0x723a	; 0x723a <LCD_WriteData>
	LCD_WriteInstruction(0x0036);	LCD_WriteData(0x0008);
    7e3e:	86 e3       	ldi	r24, 0x36	; 54
    7e40:	90 e0       	ldi	r25, 0x00	; 0
    7e42:	0e 94 04 39 	call	0x7208	; 0x7208 <LCD_WriteInstruction>
    7e46:	88 e0       	ldi	r24, 0x08	; 8
    7e48:	90 e0       	ldi	r25, 0x00	; 0
    7e4a:	0e 94 1d 39 	call	0x723a	; 0x723a <LCD_WriteData>
	LCD_WriteInstruction(0x0037);	LCD_WriteData(0x0406); 
    7e4e:	87 e3       	ldi	r24, 0x37	; 55
    7e50:	90 e0       	ldi	r25, 0x00	; 0
    7e52:	0e 94 04 39 	call	0x7208	; 0x7208 <LCD_WriteInstruction>
    7e56:	86 e0       	ldi	r24, 0x06	; 6
    7e58:	94 e0       	ldi	r25, 0x04	; 4
    7e5a:	0e 94 1d 39 	call	0x723a	; 0x723a <LCD_WriteData>
	LCD_WriteInstruction(0x0038);	LCD_WriteData(0x0304);//0200
    7e5e:	88 e3       	ldi	r24, 0x38	; 56
    7e60:	90 e0       	ldi	r25, 0x00	; 0
    7e62:	0e 94 04 39 	call	0x7208	; 0x7208 <LCD_WriteInstruction>
    7e66:	84 e0       	ldi	r24, 0x04	; 4
    7e68:	93 e0       	ldi	r25, 0x03	; 3
    7e6a:	0e 94 1d 39 	call	0x723a	; 0x723a <LCD_WriteData>
	LCD_WriteInstruction(0x0039);	LCD_WriteData(0x0007); 
    7e6e:	89 e3       	ldi	r24, 0x39	; 57
    7e70:	90 e0       	ldi	r25, 0x00	; 0
    7e72:	0e 94 04 39 	call	0x7208	; 0x7208 <LCD_WriteInstruction>
    7e76:	87 e0       	ldi	r24, 0x07	; 7
    7e78:	90 e0       	ldi	r25, 0x00	; 0
    7e7a:	0e 94 1d 39 	call	0x723a	; 0x723a <LCD_WriteData>
	LCD_WriteInstruction(0x003C);	LCD_WriteData(0x0602);// 0504
    7e7e:	8c e3       	ldi	r24, 0x3C	; 60
    7e80:	90 e0       	ldi	r25, 0x00	; 0
    7e82:	0e 94 04 39 	call	0x7208	; 0x7208 <LCD_WriteInstruction>
    7e86:	82 e0       	ldi	r24, 0x02	; 2
    7e88:	96 e0       	ldi	r25, 0x06	; 6
    7e8a:	0e 94 1d 39 	call	0x723a	; 0x723a <LCD_WriteData>
	LCD_WriteInstruction(0x003D);	LCD_WriteData(0x0008); 
    7e8e:	8d e3       	ldi	r24, 0x3D	; 61
    7e90:	90 e0       	ldi	r25, 0x00	; 0
    7e92:	0e 94 04 39 	call	0x7208	; 0x7208 <LCD_WriteInstruction>
    7e96:	88 e0       	ldi	r24, 0x08	; 8
    7e98:	90 e0       	ldi	r25, 0x00	; 0
    7e9a:	0e 94 1d 39 	call	0x723a	; 0x723a <LCD_WriteData>
	//ram
	LCD_WriteInstruction(0x0050);	LCD_WriteData(0x0000); 
    7e9e:	80 e5       	ldi	r24, 0x50	; 80
    7ea0:	90 e0       	ldi	r25, 0x00	; 0
    7ea2:	0e 94 04 39 	call	0x7208	; 0x7208 <LCD_WriteInstruction>
    7ea6:	80 e0       	ldi	r24, 0x00	; 0
    7ea8:	90 e0       	ldi	r25, 0x00	; 0
    7eaa:	0e 94 1d 39 	call	0x723a	; 0x723a <LCD_WriteData>
	LCD_WriteInstruction(0x0051);	LCD_WriteData(0x00EF);
    7eae:	81 e5       	ldi	r24, 0x51	; 81
    7eb0:	90 e0       	ldi	r25, 0x00	; 0
    7eb2:	0e 94 04 39 	call	0x7208	; 0x7208 <LCD_WriteInstruction>
    7eb6:	8f ee       	ldi	r24, 0xEF	; 239
    7eb8:	90 e0       	ldi	r25, 0x00	; 0
    7eba:	0e 94 1d 39 	call	0x723a	; 0x723a <LCD_WriteData>
	LCD_WriteInstruction(0x0052);	LCD_WriteData(0x0000); 
    7ebe:	82 e5       	ldi	r24, 0x52	; 82
    7ec0:	90 e0       	ldi	r25, 0x00	; 0
    7ec2:	0e 94 04 39 	call	0x7208	; 0x7208 <LCD_WriteInstruction>
    7ec6:	80 e0       	ldi	r24, 0x00	; 0
    7ec8:	90 e0       	ldi	r25, 0x00	; 0
    7eca:	0e 94 1d 39 	call	0x723a	; 0x723a <LCD_WriteData>
	LCD_WriteInstruction(0x0053);	LCD_WriteData(0x013F);  
    7ece:	83 e5       	ldi	r24, 0x53	; 83
    7ed0:	90 e0       	ldi	r25, 0x00	; 0
    7ed2:	0e 94 04 39 	call	0x7208	; 0x7208 <LCD_WriteInstruction>
    7ed6:	8f e3       	ldi	r24, 0x3F	; 63
    7ed8:	91 e0       	ldi	r25, 0x01	; 1
    7eda:	0e 94 1d 39 	call	0x723a	; 0x723a <LCD_WriteData>
	LCD_WriteInstruction(0x0060);	LCD_WriteData(0x2700);		// Org : 0xA700,  0x2700 : /  (GS)
    7ede:	80 e6       	ldi	r24, 0x60	; 96
    7ee0:	90 e0       	ldi	r25, 0x00	; 0
    7ee2:	0e 94 04 39 	call	0x7208	; 0x7208 <LCD_WriteInstruction>
    7ee6:	80 e0       	ldi	r24, 0x00	; 0
    7ee8:	97 e2       	ldi	r25, 0x27	; 39
    7eea:	0e 94 1d 39 	call	0x723a	; 0x723a <LCD_WriteData>
	LCD_WriteInstruction(0x0061);	LCD_WriteData(0x0001); 
    7eee:	81 e6       	ldi	r24, 0x61	; 97
    7ef0:	90 e0       	ldi	r25, 0x00	; 0
    7ef2:	0e 94 04 39 	call	0x7208	; 0x7208 <LCD_WriteInstruction>
    7ef6:	81 e0       	ldi	r24, 0x01	; 1
    7ef8:	90 e0       	ldi	r25, 0x00	; 0
    7efa:	0e 94 1d 39 	call	0x723a	; 0x723a <LCD_WriteData>
	LCD_WriteInstruction(0x006A);	LCD_WriteData(0x0000); 
    7efe:	8a e6       	ldi	r24, 0x6A	; 106
    7f00:	90 e0       	ldi	r25, 0x00	; 0
    7f02:	0e 94 04 39 	call	0x7208	; 0x7208 <LCD_WriteInstruction>
    7f06:	80 e0       	ldi	r24, 0x00	; 0
    7f08:	90 e0       	ldi	r25, 0x00	; 0
    7f0a:	0e 94 1d 39 	call	0x723a	; 0x723a <LCD_WriteData>
	//
	LCD_WriteInstruction(0x0080);	LCD_WriteData(0x0000); 
    7f0e:	80 e8       	ldi	r24, 0x80	; 128
    7f10:	90 e0       	ldi	r25, 0x00	; 0
    7f12:	0e 94 04 39 	call	0x7208	; 0x7208 <LCD_WriteInstruction>
    7f16:	80 e0       	ldi	r24, 0x00	; 0
    7f18:	90 e0       	ldi	r25, 0x00	; 0
    7f1a:	0e 94 1d 39 	call	0x723a	; 0x723a <LCD_WriteData>
	LCD_WriteInstruction(0x0081);	LCD_WriteData(0x0000); 
    7f1e:	81 e8       	ldi	r24, 0x81	; 129
    7f20:	90 e0       	ldi	r25, 0x00	; 0
    7f22:	0e 94 04 39 	call	0x7208	; 0x7208 <LCD_WriteInstruction>
    7f26:	80 e0       	ldi	r24, 0x00	; 0
    7f28:	90 e0       	ldi	r25, 0x00	; 0
    7f2a:	0e 94 1d 39 	call	0x723a	; 0x723a <LCD_WriteData>
	LCD_WriteInstruction(0x0082);	LCD_WriteData(0x0000); 
    7f2e:	82 e8       	ldi	r24, 0x82	; 130
    7f30:	90 e0       	ldi	r25, 0x00	; 0
    7f32:	0e 94 04 39 	call	0x7208	; 0x7208 <LCD_WriteInstruction>
    7f36:	80 e0       	ldi	r24, 0x00	; 0
    7f38:	90 e0       	ldi	r25, 0x00	; 0
    7f3a:	0e 94 1d 39 	call	0x723a	; 0x723a <LCD_WriteData>
	LCD_WriteInstruction(0x0083);	LCD_WriteData(0x0000); 
    7f3e:	83 e8       	ldi	r24, 0x83	; 131
    7f40:	90 e0       	ldi	r25, 0x00	; 0
    7f42:	0e 94 04 39 	call	0x7208	; 0x7208 <LCD_WriteInstruction>
    7f46:	80 e0       	ldi	r24, 0x00	; 0
    7f48:	90 e0       	ldi	r25, 0x00	; 0
    7f4a:	0e 94 1d 39 	call	0x723a	; 0x723a <LCD_WriteData>
	LCD_WriteInstruction(0x0084);	LCD_WriteData(0x0000); 
    7f4e:	84 e8       	ldi	r24, 0x84	; 132
    7f50:	90 e0       	ldi	r25, 0x00	; 0
    7f52:	0e 94 04 39 	call	0x7208	; 0x7208 <LCD_WriteInstruction>
    7f56:	80 e0       	ldi	r24, 0x00	; 0
    7f58:	90 e0       	ldi	r25, 0x00	; 0
    7f5a:	0e 94 1d 39 	call	0x723a	; 0x723a <LCD_WriteData>
	LCD_WriteInstruction(0x0085);	LCD_WriteData(0x0000); 
    7f5e:	85 e8       	ldi	r24, 0x85	; 133
    7f60:	90 e0       	ldi	r25, 0x00	; 0
    7f62:	0e 94 04 39 	call	0x7208	; 0x7208 <LCD_WriteInstruction>
    7f66:	80 e0       	ldi	r24, 0x00	; 0
    7f68:	90 e0       	ldi	r25, 0x00	; 0
    7f6a:	0e 94 1d 39 	call	0x723a	; 0x723a <LCD_WriteData>
	//
	LCD_WriteInstruction(0x0090);	LCD_WriteData(0x0010); 
    7f6e:	80 e9       	ldi	r24, 0x90	; 144
    7f70:	90 e0       	ldi	r25, 0x00	; 0
    7f72:	0e 94 04 39 	call	0x7208	; 0x7208 <LCD_WriteInstruction>
    7f76:	80 e1       	ldi	r24, 0x10	; 16
    7f78:	90 e0       	ldi	r25, 0x00	; 0
    7f7a:	0e 94 1d 39 	call	0x723a	; 0x723a <LCD_WriteData>
	LCD_WriteInstruction(0x0092);	LCD_WriteData(0x0600); 
    7f7e:	82 e9       	ldi	r24, 0x92	; 146
    7f80:	90 e0       	ldi	r25, 0x00	; 0
    7f82:	0e 94 04 39 	call	0x7208	; 0x7208 <LCD_WriteInstruction>
    7f86:	80 e0       	ldi	r24, 0x00	; 0
    7f88:	96 e0       	ldi	r25, 0x06	; 6
    7f8a:	0e 94 1d 39 	call	0x723a	; 0x723a <LCD_WriteData>
	
	LCD_WriteInstruction(0x0007);	LCD_WriteData(0x0133);
    7f8e:	87 e0       	ldi	r24, 0x07	; 7
    7f90:	90 e0       	ldi	r25, 0x00	; 0
    7f92:	0e 94 04 39 	call	0x7208	; 0x7208 <LCD_WriteInstruction>
    7f96:	83 e3       	ldi	r24, 0x33	; 51
    7f98:	91 e0       	ldi	r25, 0x01	; 1
    7f9a:	0e 94 1d 39 	call	0x723a	; 0x723a <LCD_WriteData>
	LCD_WriteInstruction(0x00);		LCD_WriteData(0x0022);//	
    7f9e:	80 e0       	ldi	r24, 0x00	; 0
    7fa0:	90 e0       	ldi	r25, 0x00	; 0
    7fa2:	0e 94 04 39 	call	0x7208	; 0x7208 <LCD_WriteInstruction>
    7fa6:	82 e2       	ldi	r24, 0x22	; 34
    7fa8:	90 e0       	ldi	r25, 0x00	; 0
    7faa:	0e 94 1d 39 	call	0x723a	; 0x723a <LCD_WriteData>


	//  
	LCD_ClearScreen(RED);
    7fae:	80 e0       	ldi	r24, 0x00	; 0
    7fb0:	98 ef       	ldi	r25, 0xF8	; 248
    7fb2:	0e 94 aa 3d 	call	0x7b54	; 0x7b54 <LCD_ClearScreen>

	stdout = &device;  	//  device  stdout . 
    7fb6:	82 e1       	ldi	r24, 0x12	; 18
    7fb8:	91 e0       	ldi	r25, 0x01	; 1
    7fba:	90 93 84 03 	sts	0x0384, r25
    7fbe:	80 93 83 03 	sts	0x0383, r24
}
    7fc2:	1f 91       	pop	r17
    7fc4:	08 95       	ret

00007fc6 <LCD_PutChar>:
}

#endif 

static int LCD_PutChar(char Data, FILE *Stream)
{
    7fc6:	8f 92       	push	r8
    7fc8:	9f 92       	push	r9
    7fca:	af 92       	push	r10
    7fcc:	bf 92       	push	r11
    7fce:	df 92       	push	r13
    7fd0:	ef 92       	push	r14
    7fd2:	ff 92       	push	r15
    7fd4:	0f 93       	push	r16
    7fd6:	1f 93       	push	r17
    7fd8:	cf 93       	push	r28
    7fda:	df 93       	push	r29
	uint8_t i,j, Font;
    uint16_t Index;
    //    .
	Index = pgm_read_byte(&EngFont_IndexTable[(uint8_t)Data]);
    7fdc:	e8 2f       	mov	r30, r24
    7fde:	f0 e0       	ldi	r31, 0x00	; 0
    7fe0:	ee 0f       	add	r30, r30
    7fe2:	ff 1f       	adc	r31, r31
    7fe4:	e4 57       	subi	r30, 0x74	; 116
    7fe6:	f9 4f       	sbci	r31, 0xF9	; 249
    7fe8:	e4 91       	lpm	r30, Z+
    7fea:	ce 2f       	mov	r28, r30
    7fec:	d0 e0       	ldi	r29, 0x00	; 0
    if(Index == 0xFF)		//   Index   
    7fee:	cf 3f       	cpi	r28, 0xFF	; 255
    7ff0:	d1 05       	cpc	r29, r1
    7ff2:	09 f4       	brne	.+2      	; 0x7ff6 <LCD_PutChar+0x30>
    7ff4:	47 c0       	rjmp	.+142    	; 0x8084 <LCD_PutChar+0xbe>
        return 0;
    }

	Index = Index * LCD_FONT_ENG_SIZE;

	LCD_SetAddress(LCD_X, LCD_Y, LCD_X + LCD_FONT_ENG_COLUMN - 1, LCD_Y + LCD_FONT_ENG_ROW - 1); 	/*    */	
    7ff6:	e0 90 ce 01 	lds	r14, 0x01CE
    7ffa:	f0 90 cf 01 	lds	r15, 0x01CF
    7ffe:	20 91 d0 01 	lds	r18, 0x01D0
    8002:	30 91 d1 01 	lds	r19, 0x01D1
    8006:	a7 01       	movw	r20, r14
    8008:	49 5f       	subi	r20, 0xF9	; 249
    800a:	5f 4f       	sbci	r21, 0xFF	; 255
    800c:	c7 01       	movw	r24, r14
    800e:	b9 01       	movw	r22, r18
    8010:	21 5f       	subi	r18, 0xF1	; 241
    8012:	3f 4f       	sbci	r19, 0xFF	; 255
    8014:	0e 94 36 39 	call	0x726c	; 0x726c <LCD_SetAddress>
    8018:	8e 01       	movw	r16, r28
    801a:	44 e0       	ldi	r20, 0x04	; 4
    801c:	00 0f       	add	r16, r16
    801e:	11 1f       	adc	r17, r17
    8020:	4a 95       	dec	r20
    8022:	e1 f7       	brne	.-8      	; 0x801c <LCD_PutChar+0x56>
    8024:	04 57       	subi	r16, 0x74	; 116
    8026:	1f 4f       	sbci	r17, 0xFF	; 255
    8028:	dd 24       	eor	r13, r13
	{
		Font = pgm_read_byte(&EngFont[j + Index]);

		for(i = 0; i < LCD_FONT_ENG_COLUMN; i++)
		{
			(Font & (0x80 >> i))? LCD_WriteData(YELLOW): LCD_WriteData(BLACK);
    802a:	30 e8       	ldi	r19, 0x80	; 128
    802c:	83 2e       	mov	r8, r19
    802e:	91 2c       	mov	r9, r1
	LCD_SetAddress(LCD_X, LCD_Y, LCD_X + LCD_FONT_ENG_COLUMN - 1, LCD_Y + LCD_FONT_ENG_ROW - 1); 	/*    */	


	for(j = 0; j < LCD_FONT_ENG_ROW; j++)
	{
		Font = pgm_read_byte(&EngFont[j + Index]);
    8030:	f8 01       	movw	r30, r16
    8032:	84 91       	lpm	r24, Z+
    8034:	c0 e0       	ldi	r28, 0x00	; 0
    8036:	d0 e0       	ldi	r29, 0x00	; 0

		for(i = 0; i < LCD_FONT_ENG_COLUMN; i++)
		{
			(Font & (0x80 >> i))? LCD_WriteData(YELLOW): LCD_WriteData(BLACK);
    8038:	a8 2e       	mov	r10, r24
    803a:	bb 24       	eor	r11, r11
    803c:	c4 01       	movw	r24, r8
    803e:	0c 2e       	mov	r0, r28
    8040:	02 c0       	rjmp	.+4      	; 0x8046 <LCD_PutChar+0x80>
    8042:	95 95       	asr	r25
    8044:	87 95       	ror	r24
    8046:	0a 94       	dec	r0
    8048:	e2 f7       	brpl	.-8      	; 0x8042 <LCD_PutChar+0x7c>
    804a:	8a 21       	and	r24, r10
    804c:	9b 21       	and	r25, r11
    804e:	89 2b       	or	r24, r25
    8050:	19 f0       	breq	.+6      	; 0x8058 <LCD_PutChar+0x92>
    8052:	80 ee       	ldi	r24, 0xE0	; 224
    8054:	9f ef       	ldi	r25, 0xFF	; 255
    8056:	02 c0       	rjmp	.+4      	; 0x805c <LCD_PutChar+0x96>
    8058:	80 e0       	ldi	r24, 0x00	; 0
    805a:	90 e0       	ldi	r25, 0x00	; 0
    805c:	0e 94 1d 39 	call	0x723a	; 0x723a <LCD_WriteData>
    8060:	21 96       	adiw	r28, 0x01	; 1

	for(j = 0; j < LCD_FONT_ENG_ROW; j++)
	{
		Font = pgm_read_byte(&EngFont[j + Index]);

		for(i = 0; i < LCD_FONT_ENG_COLUMN; i++)
    8062:	c8 30       	cpi	r28, 0x08	; 8
    8064:	d1 05       	cpc	r29, r1
    8066:	51 f7       	brne	.-44     	; 0x803c <LCD_PutChar+0x76>
	Index = Index * LCD_FONT_ENG_SIZE;

	LCD_SetAddress(LCD_X, LCD_Y, LCD_X + LCD_FONT_ENG_COLUMN - 1, LCD_Y + LCD_FONT_ENG_ROW - 1); 	/*    */	


	for(j = 0; j < LCD_FONT_ENG_ROW; j++)
    8068:	d3 94       	inc	r13
    806a:	0f 5f       	subi	r16, 0xFF	; 255
    806c:	1f 4f       	sbci	r17, 0xFF	; 255
    806e:	f0 e1       	ldi	r31, 0x10	; 16
    8070:	df 16       	cp	r13, r31
    8072:	f1 f6       	brne	.-68     	; 0x8030 <LCD_PutChar+0x6a>
		for(i = 0; i < LCD_FONT_ENG_COLUMN; i++)
		{
			(Font & (0x80 >> i))? LCD_WriteData(YELLOW): LCD_WriteData(BLACK);
		}
	}
	LCD_X += 8;
    8074:	88 e0       	ldi	r24, 0x08	; 8
    8076:	90 e0       	ldi	r25, 0x00	; 0
    8078:	e8 0e       	add	r14, r24
    807a:	f9 1e       	adc	r15, r25
    807c:	f0 92 cf 01 	sts	0x01CF, r15
    8080:	e0 92 ce 01 	sts	0x01CE, r14
	return 0;
}
    8084:	80 e0       	ldi	r24, 0x00	; 0
    8086:	90 e0       	ldi	r25, 0x00	; 0
    8088:	df 91       	pop	r29
    808a:	cf 91       	pop	r28
    808c:	1f 91       	pop	r17
    808e:	0f 91       	pop	r16
    8090:	ff 90       	pop	r15
    8092:	ef 90       	pop	r14
    8094:	df 90       	pop	r13
    8096:	bf 90       	pop	r11
    8098:	af 90       	pop	r10
    809a:	9f 90       	pop	r9
    809c:	8f 90       	pop	r8
    809e:	08 95       	ret

000080a0 <KEY_Open>:
}


void KEY_Open(Key_Handle_t Handle)
{
	Key_Handle = Handle;
    80a0:	90 93 d3 01 	sts	0x01D3, r25
    80a4:	80 93 d2 01 	sts	0x01D2, r24
}
    80a8:	08 95       	ret

000080aa <KEY_Close>:


void KEY_Close(void)
{
	Key_Handle = NULL;
    80aa:	10 92 d3 01 	sts	0x01D3, r1
    80ae:	10 92 d2 01 	sts	0x01D2, r1
}
    80b2:	08 95       	ret

000080b4 <Key_Adc_Handle>:
static void Key_Adc_Handle(uint16_t ADCValue)
{
	/* ADC -> Key */
	Key_t Key;
 
	 if(ADCValue < (ADC_KEY_RIGHT + ADC_KEY_VARIATION))  
    80b4:	82 33       	cpi	r24, 0x32	; 50
    80b6:	91 05       	cpc	r25, r1
    80b8:	10 f4       	brcc	.+4      	; 0x80be <Key_Adc_Handle+0xa>
    80ba:	81 e0       	ldi	r24, 0x01	; 1
    80bc:	17 c0       	rjmp	.+46     	; 0x80ec <Key_Adc_Handle+0x38>
	 {  
	 Key = KEY_RIGHT; 
	 } 
	 else if(ADCValue < (ADC_KEY_UP + ADC_KEY_VARIATION))  
    80be:	88 3f       	cpi	r24, 0xF8	; 248
    80c0:	91 05       	cpc	r25, r1
    80c2:	10 f4       	brcc	.+4      	; 0x80c8 <Key_Adc_Handle+0x14>
    80c4:	82 e0       	ldi	r24, 0x02	; 2
    80c6:	12 c0       	rjmp	.+36     	; 0x80ec <Key_Adc_Handle+0x38>
	 {  
	 Key = KEY_UP;  
	 } 
	 else if(ADCValue < (ADC_KEY_CENTER + ADC_KEY_VARIATION))  
    80c8:	21 e0       	ldi	r18, 0x01	; 1
    80ca:	8b 3c       	cpi	r24, 0xCB	; 203
    80cc:	92 07       	cpc	r25, r18
    80ce:	10 f4       	brcc	.+4      	; 0x80d4 <Key_Adc_Handle+0x20>
    80d0:	83 e0       	ldi	r24, 0x03	; 3
    80d2:	0c c0       	rjmp	.+24     	; 0x80ec <Key_Adc_Handle+0x38>
	 {  
	 Key = KEY_CENTER;  
	 } 
	 else if(ADCValue < (ADC_KEY_LEFT + ADC_KEY_VARIATION))  
    80d4:	22 e0       	ldi	r18, 0x02	; 2
    80d6:	85 39       	cpi	r24, 0x95	; 149
    80d8:	92 07       	cpc	r25, r18
    80da:	10 f4       	brcc	.+4      	; 0x80e0 <Key_Adc_Handle+0x2c>
    80dc:	84 e0       	ldi	r24, 0x04	; 4
    80de:	06 c0       	rjmp	.+12     	; 0x80ec <Key_Adc_Handle+0x38>
	 {  
	 Key = KEY_LEFT;  
	 } 
	 else if(ADCValue < (ADC_KEY_DOWN + ADC_KEY_VARIATION))  
    80e0:	8f 55       	subi	r24, 0x5F	; 95
    80e2:	93 40       	sbci	r25, 0x03	; 3
    80e4:	10 f0       	brcs	.+4      	; 0x80ea <Key_Adc_Handle+0x36>
    80e6:	80 e0       	ldi	r24, 0x00	; 0
    80e8:	01 c0       	rjmp	.+2      	; 0x80ec <Key_Adc_Handle+0x38>
    80ea:	85 e0       	ldi	r24, 0x05	; 5
	 {  
	 Key = KEY_NOTHING; 
	 }

	/* Back */
	if(Key_Handle)
    80ec:	e0 91 d2 01 	lds	r30, 0x01D2
    80f0:	f0 91 d3 01 	lds	r31, 0x01D3
    80f4:	30 97       	sbiw	r30, 0x00	; 0
    80f6:	09 f0       	breq	.+2      	; 0x80fa <Key_Adc_Handle+0x46>
	{
		Key_Handle(Key);
    80f8:	09 95       	icall
    80fa:	08 95       	ret

000080fc <KEY_Init>:
static void Key_Extint_Handle (void);
static void Key_Adc_Handle(uint16_t ADCValue);

void KEY_Init(void)
{
	ADC_Open(0,Key_Adc_Handle);
    80fc:	80 e0       	ldi	r24, 0x00	; 0
    80fe:	6a e5       	ldi	r22, 0x5A	; 90
    8100:	70 e4       	ldi	r23, 0x40	; 64
    8102:	0e 94 af 38 	call	0x715e	; 0x715e <ADC_Open>
	ExtInt_Open(Key_Extint_Handle );
    8106:	88 e8       	ldi	r24, 0x88	; 136
    8108:	90 e4       	ldi	r25, 0x40	; 64
    810a:	0e 94 48 37 	call	0x6e90	; 0x6e90 <ExtInt_Open>
}
    810e:	08 95       	ret

00008110 <Key_Extint_Handle>:
	Key_Handle = NULL;
}

static void Key_Extint_Handle (void)
{
	ADC_Start(0);
    8110:	80 e0       	ldi	r24, 0x00	; 0
    8112:	0e 94 a6 38 	call	0x714c	; 0x714c <ADC_Start>
}
    8116:	08 95       	ret

00008118 <Remocon_Init>:


void Remocon_Init(void)
{
	/*  Register Init ( Normal Mode :    )  */
	WGM33 = 0;		//0000 : Normal
    8118:	aa e8       	ldi	r26, 0x8A	; 138
    811a:	b0 e0       	ldi	r27, 0x00	; 0
    811c:	8c 91       	ld	r24, X
    811e:	8f 7e       	andi	r24, 0xEF	; 239
    8120:	8c 93       	st	X, r24
	WGM32 = 0;
    8122:	8c 91       	ld	r24, X
    8124:	87 7f       	andi	r24, 0xF7	; 247
    8126:	8c 93       	st	X, r24
	WGM31 = 0;
    8128:	eb e8       	ldi	r30, 0x8B	; 139
    812a:	f0 e0       	ldi	r31, 0x00	; 0
    812c:	80 81       	ld	r24, Z
    812e:	8d 7f       	andi	r24, 0xFD	; 253
    8130:	80 83       	st	Z, r24
	WGM30 = 0;
    8132:	80 81       	ld	r24, Z
    8134:	8e 7f       	andi	r24, 0xFE	; 254
    8136:	80 83       	st	Z, r24

	ICES3 = 0;		//  0 : Falling edge
    8138:	8c 91       	ld	r24, X
    813a:	8f 7b       	andi	r24, 0xBF	; 191
    813c:	8c 93       	st	X, r24

	CS32 = 1;		// 100 : 1/256
    813e:	8c 91       	ld	r24, X
    8140:	84 60       	ori	r24, 0x04	; 4
    8142:	8c 93       	st	X, r24
	CS31 = 0;
    8144:	8c 91       	ld	r24, X
    8146:	8d 7f       	andi	r24, 0xFD	; 253
    8148:	8c 93       	st	X, r24
	CS30 = 0;
    814a:	8c 91       	ld	r24, X
    814c:	8e 7f       	andi	r24, 0xFE	; 254
    814e:	8c 93       	st	X, r24

	TICIE3 = 1;		// Capture Interrupt Enable
    8150:	ed e7       	ldi	r30, 0x7D	; 125
    8152:	f0 e0       	ldi	r31, 0x00	; 0
    8154:	80 81       	ld	r24, Z
    8156:	80 62       	ori	r24, 0x20	; 32
    8158:	80 83       	st	Z, r24
}
    815a:	08 95       	ret

0000815c <Remocon_Open>:

void Remocon_Open(Remocon_Handle_t Handle)
{
	Remocon_Handle = Handle;
    815c:	90 93 d5 01 	sts	0x01D5, r25
    8160:	80 93 d4 01 	sts	0x01D4, r24
	
}
    8164:	08 95       	ret

00008166 <Remocon_Close>:

void Remocon_Close(void)
{
	Remocon_Handle = NULL;
    8166:	10 92 d5 01 	sts	0x01D5, r1
    816a:	10 92 d4 01 	sts	0x01D4, r1
}
    816e:	08 95       	ret

00008170 <__vector_25>:

ISR(TIMER3_CAPT_vect)
{
    8170:	1f 92       	push	r1
    8172:	0f 92       	push	r0
    8174:	0f b6       	in	r0, 0x3f	; 63
    8176:	0f 92       	push	r0
    8178:	0b b6       	in	r0, 0x3b	; 59
    817a:	0f 92       	push	r0
    817c:	11 24       	eor	r1, r1
    817e:	2f 93       	push	r18
    8180:	3f 93       	push	r19
    8182:	4f 93       	push	r20
    8184:	5f 93       	push	r21
    8186:	6f 93       	push	r22
    8188:	7f 93       	push	r23
    818a:	8f 93       	push	r24
    818c:	9f 93       	push	r25
    818e:	af 93       	push	r26
    8190:	bf 93       	push	r27
    8192:	ef 93       	push	r30
    8194:	ff 93       	push	r31
	uint8_t Code;	
	static uint8_t State = 0;		// 0 : Leading Pulse  , 1 : Data  
	static uint32_t CodeBits = 0;
	static uint8_t Count = 0;
	/*   */
	CurTime = ICR3L + ( (uint16_t)ICR3H << 8 );
    8196:	30 91 80 00 	lds	r19, 0x0080
    819a:	20 91 81 00 	lds	r18, 0x0081
    819e:	92 2f       	mov	r25, r18
    81a0:	80 e0       	ldi	r24, 0x00	; 0
    81a2:	83 0f       	add	r24, r19
    81a4:	91 1d       	adc	r25, r1
	Interval = CurTime - PrevTime;
    81a6:	20 91 dc 01 	lds	r18, 0x01DC
    81aa:	30 91 dd 01 	lds	r19, 0x01DD
    81ae:	ac 01       	movw	r20, r24
    81b0:	42 1b       	sub	r20, r18
    81b2:	53 0b       	sbc	r21, r19
    81b4:	9a 01       	movw	r18, r20
	PrevTime = CurTime;
    81b6:	90 93 dd 01 	sts	0x01DD, r25
    81ba:	80 93 dc 01 	sts	0x01DC, r24
	
	/* 0,1,L  */
	
	if((Interval > (NEC_LEADING_CODE_LENGTH - NEC_CODE_LENGTH_VARIATION))
    81be:	ca 01       	movw	r24, r20
    81c0:	80 50       	subi	r24, 0x00	; 0
    81c2:	91 40       	sbci	r25, 0x01	; 1
    81c4:	07 97       	sbiw	r24, 0x07	; 7
    81c6:	10 f4       	brcc	.+4      	; 0x81cc <__vector_25+0x5c>
    81c8:	8c e4       	ldi	r24, 0x4C	; 76
    81ca:	0e c0       	rjmp	.+28     	; 0x81e8 <__vector_25+0x78>
	 && (Interval < (NEC_LEADING_CODE_LENGTH + NEC_CODE_LENGTH_VARIATION)))
	 {
	 Code = NEC_LEADING_CODE;
	 }
	 else if((Interval > (NEC_LOGIC1_CODE_LENGTH - NEC_CODE_LENGTH_VARIATION))
    81cc:	ca 01       	movw	r24, r20
    81ce:	cd 97       	sbiw	r24, 0x3d	; 61
    81d0:	07 97       	sbiw	r24, 0x07	; 7
    81d2:	10 f4       	brcc	.+4      	; 0x81d8 <__vector_25+0x68>
    81d4:	81 e3       	ldi	r24, 0x31	; 49
    81d6:	08 c0       	rjmp	.+16     	; 0x81e8 <__vector_25+0x78>
	 && (Interval < (NEC_LOGIC1_CODE_LENGTH + NEC_CODE_LENGTH_VARIATION)))
	 {
	 Code = NEC_LOGIC1_CODE;
	 }
	 else if((Interval > (NEC_LOGIC0_CODE_LENGTH - NEC_CODE_LENGTH_VARIATION))
    81d8:	2d 51       	subi	r18, 0x1D	; 29
    81da:	30 40       	sbci	r19, 0x00	; 0
    81dc:	27 30       	cpi	r18, 0x07	; 7
    81de:	31 05       	cpc	r19, r1
    81e0:	10 f0       	brcs	.+4      	; 0x81e6 <__vector_25+0x76>
    81e2:	85 e4       	ldi	r24, 0x45	; 69
    81e4:	01 c0       	rjmp	.+2      	; 0x81e8 <__vector_25+0x78>
    81e6:	80 e3       	ldi	r24, 0x30	; 48
	 Code = NEC_ERROR_CODE;
	 }
//	 UART_PutChar(Code);

	/* NEC Code  */
	switch(State)
    81e8:	90 91 db 01 	lds	r25, 0x01DB
    81ec:	99 23       	and	r25, r25
    81ee:	21 f0       	breq	.+8      	; 0x81f8 <__vector_25+0x88>
    81f0:	91 30       	cpi	r25, 0x01	; 1
    81f2:	09 f0       	breq	.+2      	; 0x81f6 <__vector_25+0x86>
    81f4:	47 c0       	rjmp	.+142    	; 0x8284 <__vector_25+0x114>
    81f6:	09 c0       	rjmp	.+18     	; 0x820a <__vector_25+0x9a>
	{
		case 0:			//Leading Pulse  
			if(Code == 'L')
    81f8:	8c 34       	cpi	r24, 0x4C	; 76
    81fa:	09 f0       	breq	.+2      	; 0x81fe <__vector_25+0x8e>
    81fc:	43 c0       	rjmp	.+134    	; 0x8284 <__vector_25+0x114>
			{
				State = 1;
    81fe:	81 e0       	ldi	r24, 0x01	; 1
    8200:	80 93 db 01 	sts	0x01DB, r24
				Count = 0;
    8204:	10 92 d6 01 	sts	0x01D6, r1
    8208:	3d c0       	rjmp	.+122    	; 0x8284 <__vector_25+0x114>
			}
			break;
		case 1:			// Data  
			if(Code == '0')
    820a:	80 33       	cpi	r24, 0x30	; 48
    820c:	69 f4       	brne	.+26     	; 0x8228 <__vector_25+0xb8>
			{
				CodeBits >>= 1;
    820e:	80 91 d7 01 	lds	r24, 0x01D7
    8212:	90 91 d8 01 	lds	r25, 0x01D8
    8216:	a0 91 d9 01 	lds	r26, 0x01D9
    821a:	b0 91 da 01 	lds	r27, 0x01DA
    821e:	b6 95       	lsr	r27
    8220:	a7 95       	ror	r26
    8222:	97 95       	ror	r25
    8224:	87 95       	ror	r24
    8226:	0f c0       	rjmp	.+30     	; 0x8246 <__vector_25+0xd6>
				Count++;
			}
			else if(Code == '1')
    8228:	81 33       	cpi	r24, 0x31	; 49
    822a:	d9 f4       	brne	.+54     	; 0x8262 <__vector_25+0xf2>
			{
				CodeBits >>= 1;
    822c:	80 91 d7 01 	lds	r24, 0x01D7
    8230:	90 91 d8 01 	lds	r25, 0x01D8
    8234:	a0 91 d9 01 	lds	r26, 0x01D9
    8238:	b0 91 da 01 	lds	r27, 0x01DA
    823c:	b6 95       	lsr	r27
    823e:	a7 95       	ror	r26
    8240:	97 95       	ror	r25
    8242:	87 95       	ror	r24
				CodeBits |= 0x80000000;
    8244:	b0 68       	ori	r27, 0x80	; 128
    8246:	80 93 d7 01 	sts	0x01D7, r24
    824a:	90 93 d8 01 	sts	0x01D8, r25
    824e:	a0 93 d9 01 	sts	0x01D9, r26
    8252:	b0 93 da 01 	sts	0x01DA, r27
				Count++;
    8256:	80 91 d6 01 	lds	r24, 0x01D6
    825a:	8f 5f       	subi	r24, 0xFF	; 255
    825c:	80 93 d6 01 	sts	0x01D6, r24
    8260:	02 c0       	rjmp	.+4      	; 0x8266 <__vector_25+0xf6>
			{
				State = 0;
			}
			else
			{
				State = 0;
    8262:	10 92 db 01 	sts	0x01DB, r1
			}

			if(Count == 32)
    8266:	80 91 d6 01 	lds	r24, 0x01D6
    826a:	80 32       	cpi	r24, 0x20	; 32
    826c:	59 f4       	brne	.+22     	; 0x8284 <__vector_25+0x114>
			{
				if(Remocon_Handle)
    826e:	e0 91 d4 01 	lds	r30, 0x01D4
    8272:	f0 91 d5 01 	lds	r31, 0x01D5
    8276:	30 97       	sbiw	r30, 0x00	; 0
    8278:	19 f0       	breq	.+6      	; 0x8280 <__vector_25+0x110>
				{
					Remocon_Handle((CodeBits & 0x00FF0000) >> 16);
    827a:	80 91 d9 01 	lds	r24, 0x01D9
    827e:	09 95       	icall
				}
				State = 0;
    8280:	10 92 db 01 	sts	0x01DB, r1

		default :
			break;
	}
	
}
    8284:	ff 91       	pop	r31
    8286:	ef 91       	pop	r30
    8288:	bf 91       	pop	r27
    828a:	af 91       	pop	r26
    828c:	9f 91       	pop	r25
    828e:	8f 91       	pop	r24
    8290:	7f 91       	pop	r23
    8292:	6f 91       	pop	r22
    8294:	5f 91       	pop	r21
    8296:	4f 91       	pop	r20
    8298:	3f 91       	pop	r19
    829a:	2f 91       	pop	r18
    829c:	0f 90       	pop	r0
    829e:	0b be       	out	0x3b, r0	; 59
    82a0:	0f 90       	pop	r0
    82a2:	0f be       	out	0x3f, r0	; 63
    82a4:	0f 90       	pop	r0
    82a6:	1f 90       	pop	r1
    82a8:	18 95       	reti

000082aa <Event_Init>:



void Event_Init(void)
{
	EventBuf.top = 0;
    82aa:	10 92 73 03 	sts	0x0373, r1
	EventBuf.bottom = 0;
    82ae:	10 92 74 03 	sts	0x0374, r1
	EventBuf.count = 0;
    82b2:	10 92 75 03 	sts	0x0375, r1
}
    82b6:	08 95       	ret

000082b8 <Event_RemoveCallback>:
}

void Event_RemoveCallback(Event_t Event)
{
	//Close
}
    82b8:	08 95       	ret

000082ba <Event_Process>:
	}
}

static uint8_t Event_GetEvent(Event_t *Event, uint16_t *Arg)
{
	if(EventBuf.count == 0)
    82ba:	20 91 75 03 	lds	r18, 0x0375
    82be:	22 23       	and	r18, r18
    82c0:	19 f1       	breq	.+70     	; 0x8308 <Event_Process+0x4e>
	{
		return 0;
	}
	*Event = EventBuf.buf[EventBuf.bottom];
    82c2:	80 91 74 03 	lds	r24, 0x0374
    82c6:	90 e0       	ldi	r25, 0x00	; 0
    82c8:	fc 01       	movw	r30, r24
    82ca:	ed 50       	subi	r30, 0x0D	; 13
    82cc:	fe 4f       	sbci	r31, 0xFE	; 254
    82ce:	30 81       	ld	r19, Z
	*Arg = EventBuf.arg[EventBuf.bottom];
    82d0:	fc 01       	movw	r30, r24
    82d2:	ee 0f       	add	r30, r30
    82d4:	ff 1f       	adc	r31, r31
    82d6:	ed 58       	subi	r30, 0x8D	; 141
    82d8:	fd 4f       	sbci	r31, 0xFD	; 253
    82da:	60 81       	ld	r22, Z
    82dc:	71 81       	ldd	r23, Z+1	; 0x01

	EventBuf.bottom = (EventBuf.bottom +1) % EVENT_BUFFER_SIZE;		//RingArg
    82de:	01 96       	adiw	r24, 0x01	; 1
    82e0:	8f 77       	andi	r24, 0x7F	; 127
    82e2:	90 70       	andi	r25, 0x00	; 0
    82e4:	80 93 74 03 	sts	0x0374, r24
	EventBuf.count--;
    82e8:	21 50       	subi	r18, 0x01	; 1
    82ea:	20 93 75 03 	sts	0x0375, r18
	/* Event  */
	if(Event_GetEvent(&Event,&Arg)==0)
		return;

	/* Back  */
	if(EventCallbackTable[Event])
    82ee:	e3 2f       	mov	r30, r19
    82f0:	f0 e0       	ldi	r31, 0x00	; 0
    82f2:	ee 0f       	add	r30, r30
    82f4:	ff 1f       	adc	r31, r31
    82f6:	e2 52       	subi	r30, 0x22	; 34
    82f8:	fe 4f       	sbci	r31, 0xFE	; 254
    82fa:	01 90       	ld	r0, Z+
    82fc:	f0 81       	ld	r31, Z
    82fe:	e0 2d       	mov	r30, r0
    8300:	30 97       	sbiw	r30, 0x00	; 0
    8302:	11 f0       	breq	.+4      	; 0x8308 <Event_Process+0x4e>
	{
		EventCallbackTable[Event](Event,Arg);
    8304:	83 2f       	mov	r24, r19
    8306:	09 95       	icall
    8308:	08 95       	ret

0000830a <Event_PutEvent>:
	}
}

void Event_PutEvent(Event_t Event,uint16_t Arg)
{
	EventBuf.buf[EventBuf.top] = Event;
    830a:	20 91 73 03 	lds	r18, 0x0373
    830e:	30 e0       	ldi	r19, 0x00	; 0
    8310:	f9 01       	movw	r30, r18
    8312:	ed 50       	subi	r30, 0x0D	; 13
    8314:	fe 4f       	sbci	r31, 0xFE	; 254
    8316:	80 83       	st	Z, r24
	EventBuf.arg[EventBuf.top] = Arg;
    8318:	f9 01       	movw	r30, r18
    831a:	ee 0f       	add	r30, r30
    831c:	ff 1f       	adc	r31, r31
    831e:	ed 58       	subi	r30, 0x8D	; 141
    8320:	fd 4f       	sbci	r31, 0xFD	; 253
    8322:	71 83       	std	Z+1, r23	; 0x01
    8324:	60 83       	st	Z, r22

	EventBuf.top = (EventBuf.top +1) % EVENT_BUFFER_SIZE;	//RingBuffer
    8326:	2f 5f       	subi	r18, 0xFF	; 255
    8328:	3f 4f       	sbci	r19, 0xFF	; 255
    832a:	2f 77       	andi	r18, 0x7F	; 127
    832c:	30 70       	andi	r19, 0x00	; 0
    832e:	20 93 73 03 	sts	0x0373, r18
	EventBuf.count++;
    8332:	80 91 75 03 	lds	r24, 0x0375
    8336:	8f 5f       	subi	r24, 0xFF	; 255
    8338:	80 93 75 03 	sts	0x0375, r24
	if(EventBuf.count > EVENT_BUFFER_SIZE)
    833c:	81 38       	cpi	r24, 0x81	; 129
    833e:	28 f0       	brcs	.+10     	; 0x834a <Event_PutEvent+0x40>
	{
		EventBuf.bottom = EventBuf.top;
    8340:	20 93 74 03 	sts	0x0374, r18
		EventBuf.count = EVENT_BUFFER_SIZE;
    8344:	80 e8       	ldi	r24, 0x80	; 128
    8346:	80 93 75 03 	sts	0x0375, r24
    834a:	08 95       	ret

0000834c <Event_Alarm0Callback>:
	
}

static void Event_Alarm0Callback(void)
{
	Event_PutEvent(EVENT_ALARM0,0);
    834c:	80 e0       	ldi	r24, 0x00	; 0
    834e:	60 e0       	ldi	r22, 0x00	; 0
    8350:	70 e0       	ldi	r23, 0x00	; 0
    8352:	0e 94 85 41 	call	0x830a	; 0x830a <Event_PutEvent>
}
    8356:	08 95       	ret

00008358 <Event_Alarm1Callback>:
static void Event_Alarm1Callback(void)
{
	Event_PutEvent(EVENT_ALARM1,0);
    8358:	81 e0       	ldi	r24, 0x01	; 1
    835a:	60 e0       	ldi	r22, 0x00	; 0
    835c:	70 e0       	ldi	r23, 0x00	; 0
    835e:	0e 94 85 41 	call	0x830a	; 0x830a <Event_PutEvent>
}
    8362:	08 95       	ret

00008364 <Event_Alarm2Callback>:

static void Event_Alarm2Callback(void)
{
	Event_PutEvent(EVENT_ALARM2,0);
    8364:	82 e0       	ldi	r24, 0x02	; 2
    8366:	60 e0       	ldi	r22, 0x00	; 0
    8368:	70 e0       	ldi	r23, 0x00	; 0
    836a:	0e 94 85 41 	call	0x830a	; 0x830a <Event_PutEvent>

}
    836e:	08 95       	ret

00008370 <Event_Alarm3Callback>:

static void Event_Alarm3Callback(void)
{
	Event_PutEvent(EVENT_ALARM3,0);
    8370:	83 e0       	ldi	r24, 0x03	; 3
    8372:	60 e0       	ldi	r22, 0x00	; 0
    8374:	70 e0       	ldi	r23, 0x00	; 0
    8376:	0e 94 85 41 	call	0x830a	; 0x830a <Event_PutEvent>

}
    837a:	08 95       	ret

0000837c <Event_KeyCallback>:

static void Event_KeyCallback(Key_t Key)
{
    837c:	68 2f       	mov	r22, r24
	Event_PutEvent(EVENT_KEY ,Key);
    837e:	84 e0       	ldi	r24, 0x04	; 4
    8380:	70 e0       	ldi	r23, 0x00	; 0
    8382:	0e 94 85 41 	call	0x830a	; 0x830a <Event_PutEvent>

}
    8386:	08 95       	ret

00008388 <Event_UARTCallback>:

static void Event_UARTCallback(uint8_t Data)
{
    8388:	68 2f       	mov	r22, r24
	Event_PutEvent(EVENT_UART ,Data);
    838a:	85 e0       	ldi	r24, 0x05	; 5
    838c:	70 e0       	ldi	r23, 0x00	; 0
    838e:	0e 94 85 41 	call	0x830a	; 0x830a <Event_PutEvent>
}
    8392:	08 95       	ret

00008394 <Event_VolumeCallback>:

static void Event_VolumeCallback(uint16_t Data)
{
    8394:	bc 01       	movw	r22, r24
	Event_PutEvent(EVENT_VOLUME,Data);
    8396:	86 e0       	ldi	r24, 0x06	; 6
    8398:	0e 94 85 41 	call	0x830a	; 0x830a <Event_PutEvent>
}
    839c:	08 95       	ret

0000839e <Event_TempCallback>:

static void Event_TempCallback(uint16_t Data)
{
    839e:	bc 01       	movw	r22, r24
	Event_PutEvent(EVENT_TEMP,Data);
    83a0:	87 e0       	ldi	r24, 0x07	; 7
    83a2:	0e 94 85 41 	call	0x830a	; 0x830a <Event_PutEvent>
}
    83a6:	08 95       	ret

000083a8 <Event_BrightCallback>:

static void Event_BrightCallback(uint16_t Data)
{
    83a8:	bc 01       	movw	r22, r24
	Event_PutEvent(EVENT_BRIGHT,Data);
    83aa:	88 e0       	ldi	r24, 0x08	; 8
    83ac:	0e 94 85 41 	call	0x830a	; 0x830a <Event_PutEvent>
}
    83b0:	08 95       	ret

000083b2 <Event_RemoconCallback>:

static void Event_RemoconCallback(Remocon_Code_t Code)
{
    83b2:	68 2f       	mov	r22, r24
	Event_PutEvent(EVENT_REMOCON,Code);
    83b4:	89 e0       	ldi	r24, 0x09	; 9
    83b6:	70 e0       	ldi	r23, 0x00	; 0
    83b8:	0e 94 85 41 	call	0x830a	; 0x830a <Event_PutEvent>
}
    83bc:	08 95       	ret

000083be <Event_RegisterCallback>:
	EventBuf.bottom = 0;
	EventBuf.count = 0;
}

void Event_RegisterCallback(Event_t Event,uint16_t Arg,Event_Callback_t Callback)
{
    83be:	1f 93       	push	r17
    83c0:	cf 93       	push	r28
    83c2:	df 93       	push	r29
    83c4:	18 2f       	mov	r17, r24
    83c6:	ea 01       	movw	r28, r20
	switch(Event)
    83c8:	84 30       	cpi	r24, 0x04	; 4
    83ca:	59 f1       	breq	.+86     	; 0x8422 <Event_RegisterCallback+0x64>
    83cc:	85 30       	cpi	r24, 0x05	; 5
    83ce:	48 f4       	brcc	.+18     	; 0x83e2 <Event_RegisterCallback+0x24>
    83d0:	81 30       	cpi	r24, 0x01	; 1
    83d2:	c9 f0       	breq	.+50     	; 0x8406 <Event_RegisterCallback+0x48>
    83d4:	81 30       	cpi	r24, 0x01	; 1
    83d6:	98 f0       	brcs	.+38     	; 0x83fe <Event_RegisterCallback+0x40>
    83d8:	82 30       	cpi	r24, 0x02	; 2
    83da:	d9 f0       	breq	.+54     	; 0x8412 <Event_RegisterCallback+0x54>
    83dc:	83 30       	cpi	r24, 0x03	; 3
    83de:	e9 f5       	brne	.+122    	; 0x845a <Event_RegisterCallback+0x9c>
    83e0:	1c c0       	rjmp	.+56     	; 0x841a <Event_RegisterCallback+0x5c>
    83e2:	87 30       	cpi	r24, 0x07	; 7
    83e4:	61 f1       	breq	.+88     	; 0x843e <Event_RegisterCallback+0x80>
    83e6:	88 30       	cpi	r24, 0x08	; 8
    83e8:	28 f4       	brcc	.+10     	; 0x83f4 <Event_RegisterCallback+0x36>
    83ea:	85 30       	cpi	r24, 0x05	; 5
    83ec:	f9 f0       	breq	.+62     	; 0x842c <Event_RegisterCallback+0x6e>
    83ee:	86 30       	cpi	r24, 0x06	; 6
    83f0:	a1 f5       	brne	.+104    	; 0x845a <Event_RegisterCallback+0x9c>
    83f2:	21 c0       	rjmp	.+66     	; 0x8436 <Event_RegisterCallback+0x78>
    83f4:	88 30       	cpi	r24, 0x08	; 8
    83f6:	39 f1       	breq	.+78     	; 0x8446 <Event_RegisterCallback+0x88>
    83f8:	89 30       	cpi	r24, 0x09	; 9
    83fa:	79 f5       	brne	.+94     	; 0x845a <Event_RegisterCallback+0x9c>
    83fc:	2a c0       	rjmp	.+84     	; 0x8452 <Event_RegisterCallback+0x94>
	 {
	  case EVENT_ALARM0 :
	   Alarm_Open(ALARM0, Arg, Event_Alarm0Callback);
    83fe:	80 e0       	ldi	r24, 0x00	; 0
    8400:	46 ea       	ldi	r20, 0xA6	; 166
    8402:	51 e4       	ldi	r21, 0x41	; 65
    8404:	03 c0       	rjmp	.+6      	; 0x840c <Event_RegisterCallback+0x4e>
	   break;
	  case EVENT_ALARM1 :
	   Alarm_Open(ALARM1, Arg, Event_Alarm1Callback);
    8406:	81 e0       	ldi	r24, 0x01	; 1
    8408:	4c ea       	ldi	r20, 0xAC	; 172
    840a:	51 e4       	ldi	r21, 0x41	; 65
    840c:	0e 94 10 38 	call	0x7020	; 0x7020 <Alarm_Open>
    8410:	24 c0       	rjmp	.+72     	; 0x845a <Event_RegisterCallback+0x9c>
	   break;
	  case EVENT_ALARM2 :
	   Alarm_Open(ALARM2, Arg, Event_Alarm2Callback);
    8412:	82 e0       	ldi	r24, 0x02	; 2
    8414:	42 eb       	ldi	r20, 0xB2	; 178
    8416:	51 e4       	ldi	r21, 0x41	; 65
    8418:	f9 cf       	rjmp	.-14     	; 0x840c <Event_RegisterCallback+0x4e>
	   break;
	  case EVENT_ALARM3 :
	   Alarm_Open(ALARM3, Arg, Event_Alarm3Callback);
    841a:	83 e0       	ldi	r24, 0x03	; 3
    841c:	48 eb       	ldi	r20, 0xB8	; 184
    841e:	51 e4       	ldi	r21, 0x41	; 65
    8420:	f5 cf       	rjmp	.-22     	; 0x840c <Event_RegisterCallback+0x4e>
	   break;
	  case EVENT_KEY :
	   KEY_Open(Event_KeyCallback);
    8422:	8e eb       	ldi	r24, 0xBE	; 190
    8424:	91 e4       	ldi	r25, 0x41	; 65
    8426:	0e 94 50 40 	call	0x80a0	; 0x80a0 <KEY_Open>
    842a:	17 c0       	rjmp	.+46     	; 0x845a <Event_RegisterCallback+0x9c>
	   break;
	  case EVENT_UART :
	   UART_Open(Event_UARTCallback);
    842c:	84 ec       	ldi	r24, 0xC4	; 196
    842e:	91 e4       	ldi	r25, 0x41	; 65
    8430:	0e 94 c1 37 	call	0x6f82	; 0x6f82 <UART_Open>
    8434:	12 c0       	rjmp	.+36     	; 0x845a <Event_RegisterCallback+0x9c>
	   break;
	  case EVENT_VOLUME :
	   ADC_Open(1, Event_VolumeCallback);
    8436:	81 e0       	ldi	r24, 0x01	; 1
    8438:	6a ec       	ldi	r22, 0xCA	; 202
    843a:	71 e4       	ldi	r23, 0x41	; 65
    843c:	07 c0       	rjmp	.+14     	; 0x844c <Event_RegisterCallback+0x8e>
	   break;
	  case EVENT_TEMP :
	   ADC_Open(2, Event_TempCallback);
    843e:	82 e0       	ldi	r24, 0x02	; 2
    8440:	6f ec       	ldi	r22, 0xCF	; 207
    8442:	71 e4       	ldi	r23, 0x41	; 65
    8444:	03 c0       	rjmp	.+6      	; 0x844c <Event_RegisterCallback+0x8e>
	   break;
	  case EVENT_BRIGHT :
	   ADC_Open(3, Event_BrightCallback);
    8446:	83 e0       	ldi	r24, 0x03	; 3
    8448:	64 ed       	ldi	r22, 0xD4	; 212
    844a:	71 e4       	ldi	r23, 0x41	; 65
    844c:	0e 94 af 38 	call	0x715e	; 0x715e <ADC_Open>
    8450:	04 c0       	rjmp	.+8      	; 0x845a <Event_RegisterCallback+0x9c>
	   break;
	  case EVENT_REMOCON:
	   Remocon_Open(Event_RemoconCallback);
    8452:	89 ed       	ldi	r24, 0xD9	; 217
    8454:	91 e4       	ldi	r25, 0x41	; 65
    8456:	0e 94 ae 40 	call	0x815c	; 0x815c <Remocon_Open>
	  default :
	   break;
	 }


	 EventCallbackTable[Event] = Callback;
    845a:	e1 2f       	mov	r30, r17
    845c:	f0 e0       	ldi	r31, 0x00	; 0
    845e:	ee 0f       	add	r30, r30
    8460:	ff 1f       	adc	r31, r31
    8462:	e2 52       	subi	r30, 0x22	; 34
    8464:	fe 4f       	sbci	r31, 0xFE	; 254
    8466:	d1 83       	std	Z+1, r29	; 0x01
    8468:	c0 83       	st	Z, r28
}
    846a:	df 91       	pop	r29
    846c:	cf 91       	pop	r28
    846e:	1f 91       	pop	r17
    8470:	08 95       	ret

00008472 <Clock_GetTime>:

}
Time_t Clock_GetTime(void)
{

}
    8472:	08 95       	ret

00008474 <Clock_1sCallback>:
	Clock_Display();
}

static void Clock_1sCallback(Event_t Event, uint16_t Arg)
{
	if(ClockStatus.TimeEnable)
    8474:	80 91 7d 03 	lds	r24, 0x037D
    8478:	88 23       	and	r24, r24
    847a:	f9 f0       	breq	.+62     	; 0x84ba <Clock_1sCallback+0x46>
	{
		ClockStatus.Time.Second++;
    847c:	80 91 7a 03 	lds	r24, 0x037A
    8480:	8f 5f       	subi	r24, 0xFF	; 255
    8482:	80 93 7a 03 	sts	0x037A, r24
		if(ClockStatus.Time.Second == 60)
    8486:	8c 33       	cpi	r24, 0x3C	; 60
    8488:	39 f4       	brne	.+14     	; 0x8498 <Clock_1sCallback+0x24>
		{
			ClockStatus.Time.Minute++;
    848a:	80 91 79 03 	lds	r24, 0x0379
    848e:	8f 5f       	subi	r24, 0xFF	; 255
    8490:	80 93 79 03 	sts	0x0379, r24
			ClockStatus.Time.Second = 0;
    8494:	10 92 7a 03 	sts	0x037A, r1
		}

		if(ClockStatus.Time.Minute == 60)
    8498:	80 91 79 03 	lds	r24, 0x0379
    849c:	8c 33       	cpi	r24, 0x3C	; 60
    849e:	39 f4       	brne	.+14     	; 0x84ae <Clock_1sCallback+0x3a>
		{
			ClockStatus.Time.Hour++;
    84a0:	80 91 78 03 	lds	r24, 0x0378
    84a4:	8f 5f       	subi	r24, 0xFF	; 255
    84a6:	80 93 78 03 	sts	0x0378, r24
			ClockStatus.Time.Minute = 0;
    84aa:	10 92 79 03 	sts	0x0379, r1
		}

		if(ClockStatus.Time.Hour == 24)
    84ae:	80 91 78 03 	lds	r24, 0x0378
    84b2:	88 31       	cpi	r24, 0x18	; 24
    84b4:	11 f4       	brne	.+4      	; 0x84ba <Clock_1sCallback+0x46>
		{
			ClockStatus.Time.Hour = 0;
    84b6:	10 92 78 03 	sts	0x0378, r1
    84ba:	08 95       	ret

000084bc <Clock_KeyCallback>:
		}
	}
}

static void Clock_KeyCallback(Event_t Event, uint16_t Arg)
{
    84bc:	cf 93       	push	r28
    84be:	df 93       	push	r29
    84c0:	48 2f       	mov	r20, r24
	uint8_t StateNum;
	 
	 /*    */
	 StateNum = Clock_FindStateMachine(ClockStatus.State, Event, Arg);
    84c2:	30 91 76 03 	lds	r19, 0x0376
    84c6:	20 e0       	ldi	r18, 0x00	; 0
    84c8:	0b c0       	rjmp	.+22     	; 0x84e0 <Clock_KeyCallback+0x24>
{
	uint8_t i;
	 
	for(i = 0;ClockStateMachine[i].CurrentState != 0xFF;i++)
	{
	  if((ClockStateMachine[i].CurrentState == CurState) &&
    84ca:	83 17       	cp	r24, r19
    84cc:	41 f4       	brne	.+16     	; 0x84de <Clock_KeyCallback+0x22>
    84ce:	82 81       	ldd	r24, Z+2	; 0x02
    84d0:	84 17       	cp	r24, r20
    84d2:	29 f4       	brne	.+10     	; 0x84de <Clock_KeyCallback+0x22>
    84d4:	83 81       	ldd	r24, Z+3	; 0x03
    84d6:	94 81       	ldd	r25, Z+4	; 0x04
    84d8:	86 17       	cp	r24, r22
    84da:	97 07       	cpc	r25, r23
    84dc:	89 f0       	breq	.+34     	; 0x8500 <Clock_KeyCallback+0x44>

static uint8_t Clock_FindStateMachine(Clock_State_t CurState, Event_t Event, uint16_t Arg)
{
	uint8_t i;
	 
	for(i = 0;ClockStateMachine[i].CurrentState != 0xFF;i++)
    84de:	2f 5f       	subi	r18, 0xFF	; 255
    84e0:	c2 2f       	mov	r28, r18
    84e2:	d0 e0       	ldi	r29, 0x00	; 0
    84e4:	fe 01       	movw	r30, r28
    84e6:	93 e0       	ldi	r25, 0x03	; 3
    84e8:	ee 0f       	add	r30, r30
    84ea:	ff 1f       	adc	r31, r31
    84ec:	9a 95       	dec	r25
    84ee:	e1 f7       	brne	.-8      	; 0x84e8 <Clock_KeyCallback+0x2c>
    84f0:	ec 1b       	sub	r30, r28
    84f2:	fd 0b       	sbc	r31, r29
    84f4:	e0 5e       	subi	r30, 0xE0	; 224
    84f6:	fe 4f       	sbci	r31, 0xFE	; 254
    84f8:	80 81       	ld	r24, Z
    84fa:	8f 3f       	cpi	r24, 0xFF	; 255
    84fc:	31 f7       	brne	.-52     	; 0x84ca <Clock_KeyCallback+0xe>
    84fe:	15 c0       	rjmp	.+42     	; 0x852a <Clock_KeyCallback+0x6e>
	 
	 /*    */
	 StateNum = Clock_FindStateMachine(ClockStatus.State, Event, Arg);
	
	
	 if(StateNum == 0xFF) //  .
    8500:	2f 3f       	cpi	r18, 0xFF	; 255
    8502:	99 f0       	breq	.+38     	; 0x852a <Clock_KeyCallback+0x6e>
	  return;
	 /*    */
	 if(ClockStateMachine[StateNum].pFunction)
    8504:	05 80       	ldd	r0, Z+5	; 0x05
    8506:	f6 81       	ldd	r31, Z+6	; 0x06
    8508:	e0 2d       	mov	r30, r0
    850a:	30 97       	sbiw	r30, 0x00	; 0
    850c:	09 f0       	breq	.+2      	; 0x8510 <Clock_KeyCallback+0x54>
	 {
	  ClockStateMachine[StateNum].pFunction();
    850e:	09 95       	icall
	 }
	
	
	 /*   ->    */
	 ClockStatus.State = ClockStateMachine[StateNum].NextState;
    8510:	fe 01       	movw	r30, r28
    8512:	83 e0       	ldi	r24, 0x03	; 3
    8514:	ee 0f       	add	r30, r30
    8516:	ff 1f       	adc	r31, r31
    8518:	8a 95       	dec	r24
    851a:	e1 f7       	brne	.-8      	; 0x8514 <Clock_KeyCallback+0x58>
    851c:	ec 1b       	sub	r30, r28
    851e:	fd 0b       	sbc	r31, r29
    8520:	e0 5e       	subi	r30, 0xE0	; 224
    8522:	fe 4f       	sbci	r31, 0xFE	; 254
    8524:	81 81       	ldd	r24, Z+1	; 0x01
    8526:	80 93 76 03 	sts	0x0376, r24

}
    852a:	df 91       	pop	r29
    852c:	cf 91       	pop	r28
    852e:	08 95       	ret

00008530 <Clock_C0S0>:
 FND_Write(ClockStatus.StopwatchTime / 600 % 10, 3, 1);
}

static void Clock_C0S0(void)
{
	ClockStatus.Mode = CLOCK_MODE_STOPWATCH;
    8530:	81 e0       	ldi	r24, 0x01	; 1
    8532:	80 93 77 03 	sts	0x0377, r24
}
    8536:	08 95       	ret

00008538 <Clock_S0C0>:

static void Clock_S0C0(void)
{
	ClockStatus.Mode = CLOCK_MODE_CLOCK;
    8538:	10 92 77 03 	sts	0x0377, r1
}
    853c:	08 95       	ret

0000853e <Clock_S0S1>:

static void Clock_S0S1(void)
{
	ClockStatus.StopwatchEnable = 1;
    853e:	81 e0       	ldi	r24, 0x01	; 1
    8540:	80 93 7e 03 	sts	0x037E, r24
}
    8544:	08 95       	ret

00008546 <Clock_S2S1>:

static void Clock_S2S1(void)
{
	ClockStatus.StopwatchEnable = 1;
    8546:	81 e0       	ldi	r24, 0x01	; 1
    8548:	80 93 7e 03 	sts	0x037E, r24
}
    854c:	08 95       	ret

0000854e <Clock_S1S2>:

static void Clock_S1S2(void)
{
	ClockStatus.StopwatchEnable = 0;
    854e:	10 92 7e 03 	sts	0x037E, r1
}
    8552:	08 95       	ret

00008554 <Clock_S2S0>:

static void Clock_S2S0(void)
{
	ClockStatus.StopwatchTime = 0;
    8554:	10 92 7c 03 	sts	0x037C, r1
    8558:	10 92 7b 03 	sts	0x037B, r1
}
    855c:	08 95       	ret

0000855e <Clock_C0T0>:

static void Clock_C0T0(void)
{
	ClockStatus.TimeEnable = 0;
    855e:	10 92 7d 03 	sts	0x037D, r1
}
    8562:	08 95       	ret

00008564 <Clock_T0C0>:

static void Clock_T0C0(void)
{
	ClockStatus.TimeEnable = 1;
    8564:	81 e0       	ldi	r24, 0x01	; 1
    8566:	80 93 7d 03 	sts	0x037D, r24
}
    856a:	08 95       	ret

0000856c <Clock_T0T1>:

static void Clock_T0T1(void)
{
	ClockStatus.MinuteBlink = 1;
    856c:	81 e0       	ldi	r24, 0x01	; 1
    856e:	80 93 7f 03 	sts	0x037F, r24
}
    8572:	08 95       	ret

00008574 <Clock_T1T0>:

static void Clock_T1T0(void)
{
	ClockStatus.MinuteBlink = 0;
    8574:	10 92 7f 03 	sts	0x037F, r1
}
    8578:	08 95       	ret

0000857a <Clock_T1T2>:

static void Clock_T1T2(void)
{
	ClockStatus.MinuteBlink = 0;
    857a:	10 92 7f 03 	sts	0x037F, r1
	ClockStatus.SecondBlink = 1;
    857e:	81 e0       	ldi	r24, 0x01	; 1
    8580:	80 93 80 03 	sts	0x0380, r24
}
    8584:	08 95       	ret

00008586 <Clock_T2T1>:

static void Clock_T2T1(void)
{
	ClockStatus.MinuteBlink = 1;
    8586:	81 e0       	ldi	r24, 0x01	; 1
    8588:	80 93 7f 03 	sts	0x037F, r24
	ClockStatus.SecondBlink = 0;
    858c:	10 92 80 03 	sts	0x0380, r1
}
    8590:	08 95       	ret

00008592 <Clock_T2T0>:

static void Clock_T2T0(void)
{
	ClockStatus.SecondBlink = 0;
    8592:	10 92 80 03 	sts	0x0380, r1
}
    8596:	08 95       	ret

00008598 <Clock_T0T2>:

static void Clock_T0T2(void)
{
	ClockStatus.SecondBlink = 1;
    8598:	81 e0       	ldi	r24, 0x01	; 1
    859a:	80 93 80 03 	sts	0x0380, r24
}
    859e:	08 95       	ret

000085a0 <Clock_T1T1Up>:

static void Clock_T1T1Up(void)
{
	ClockStatus.Time.Minute++;
	ClockStatus.Time.Minute %= 60;
    85a0:	80 91 79 03 	lds	r24, 0x0379
    85a4:	8f 5f       	subi	r24, 0xFF	; 255
    85a6:	6c e3       	ldi	r22, 0x3C	; 60
    85a8:	0e 94 e7 43 	call	0x87ce	; 0x87ce <__udivmodqi4>
    85ac:	90 93 79 03 	sts	0x0379, r25
}
    85b0:	08 95       	ret

000085b2 <Clock_T1T1Down>:

static void Clock_T1T1Down(void)
{

	if(ClockStatus.Time.Minute == 0)
    85b2:	80 91 79 03 	lds	r24, 0x0379
    85b6:	88 23       	and	r24, r24
    85b8:	11 f4       	brne	.+4      	; 0x85be <Clock_T1T1Down+0xc>
	{
		ClockStatus.Time.Minute = 59;
    85ba:	8b e3       	ldi	r24, 0x3B	; 59
    85bc:	01 c0       	rjmp	.+2      	; 0x85c0 <Clock_T1T1Down+0xe>
	}
	else
	{
		ClockStatus.Time.Minute--;
    85be:	81 50       	subi	r24, 0x01	; 1
    85c0:	80 93 79 03 	sts	0x0379, r24
    85c4:	08 95       	ret

000085c6 <Clock_T2T2Up>:
}

static void Clock_T2T2Up(void)
{
	ClockStatus.Time.Second++;
	ClockStatus.Time.Second%= 60;
    85c6:	80 91 7a 03 	lds	r24, 0x037A
    85ca:	8f 5f       	subi	r24, 0xFF	; 255
    85cc:	6c e3       	ldi	r22, 0x3C	; 60
    85ce:	0e 94 e7 43 	call	0x87ce	; 0x87ce <__udivmodqi4>
    85d2:	90 93 7a 03 	sts	0x037A, r25
}
    85d6:	08 95       	ret

000085d8 <Clock_T2T2Down>:

static void Clock_T2T2Down(void)
{
	if(ClockStatus.Time.Second == 0)
    85d8:	80 91 7a 03 	lds	r24, 0x037A
    85dc:	88 23       	and	r24, r24
    85de:	11 f4       	brne	.+4      	; 0x85e4 <Clock_T2T2Down+0xc>
	{
		ClockStatus.Time.Second = 59;
    85e0:	8b e3       	ldi	r24, 0x3B	; 59
    85e2:	01 c0       	rjmp	.+2      	; 0x85e6 <Clock_T2T2Down+0xe>
	}
	else
	{
		ClockStatus.Time.Second--;
    85e4:	81 50       	subi	r24, 0x01	; 1
    85e6:	80 93 7a 03 	sts	0x037A, r24
    85ea:	08 95       	ret

000085ec <Clock_App>:

void Clock_App(void)
{

	/*    */
	ClockStatus.State = CLOCK_STATE_CLOCK_INIT;
    85ec:	10 92 76 03 	sts	0x0376, r1
	ClockStatus.Mode = CLOCK_MODE_STOPWATCH;
    85f0:	81 e0       	ldi	r24, 0x01	; 1
    85f2:	80 93 77 03 	sts	0x0377, r24
	ClockStatus.Time.Hour = 0;
    85f6:	10 92 78 03 	sts	0x0378, r1
	ClockStatus.Time.Minute = 0;
    85fa:	10 92 79 03 	sts	0x0379, r1
	ClockStatus.Time.Second = 0;
    85fe:	10 92 7a 03 	sts	0x037A, r1
	ClockStatus.StopwatchTime = 0;
    8602:	10 92 7c 03 	sts	0x037C, r1
    8606:	10 92 7b 03 	sts	0x037B, r1
	ClockStatus.TimeEnable = 1;
    860a:	80 93 7d 03 	sts	0x037D, r24
	ClockStatus.StopwatchEnable = 0;
    860e:	10 92 7e 03 	sts	0x037E, r1
	ClockStatus.MinuteBlink = 0;
    8612:	10 92 7f 03 	sts	0x037F, r1
	ClockStatus.SecondBlink = 0;
    8616:	10 92 80 03 	sts	0x0380, r1
 
	/*   */
	Event_RegisterCallback(EVENT_KEY,0,Clock_KeyCallback);
    861a:	84 e0       	ldi	r24, 0x04	; 4
    861c:	60 e0       	ldi	r22, 0x00	; 0
    861e:	70 e0       	ldi	r23, 0x00	; 0
    8620:	4e e5       	ldi	r20, 0x5E	; 94
    8622:	52 e4       	ldi	r21, 0x42	; 66
    8624:	0e 94 df 41 	call	0x83be	; 0x83be <Event_RegisterCallback>
	Event_RegisterCallback(EVENT_ALARM0,100,Clock_100msCallback);
    8628:	80 e0       	ldi	r24, 0x00	; 0
    862a:	64 e6       	ldi	r22, 0x64	; 100
    862c:	70 e0       	ldi	r23, 0x00	; 0
    862e:	43 e2       	ldi	r20, 0x23	; 35
    8630:	53 e4       	ldi	r21, 0x43	; 67
    8632:	0e 94 df 41 	call	0x83be	; 0x83be <Event_RegisterCallback>
	Event_RegisterCallback(EVENT_ALARM1,1000,Clock_1sCallback);
    8636:	81 e0       	ldi	r24, 0x01	; 1
    8638:	68 ee       	ldi	r22, 0xE8	; 232
    863a:	73 e0       	ldi	r23, 0x03	; 3
    863c:	4a e3       	ldi	r20, 0x3A	; 58
    863e:	52 e4       	ldi	r21, 0x42	; 66
    8640:	0e 94 df 41 	call	0x83be	; 0x83be <Event_RegisterCallback>

}
    8644:	08 95       	ret

00008646 <Clock_100msCallback>:

}

static void Clock_100msCallback(Event_t Event, uint16_t Arg)
{
	if(ClockStatus.StopwatchEnable)
    8646:	80 91 7e 03 	lds	r24, 0x037E
    864a:	88 23       	and	r24, r24
    864c:	49 f0       	breq	.+18     	; 0x8660 <Clock_100msCallback+0x1a>
	{
		ClockStatus.StopwatchTime++;
    864e:	80 91 7b 03 	lds	r24, 0x037B
    8652:	90 91 7c 03 	lds	r25, 0x037C
    8656:	01 96       	adiw	r24, 0x01	; 1
    8658:	90 93 7c 03 	sts	0x037C, r25
    865c:	80 93 7b 03 	sts	0x037B, r24
}

/* Display  */
static void Clock_Display(void)
{
 if(ClockStatus.Mode == CLOCK_MODE_CLOCK)
    8660:	80 91 77 03 	lds	r24, 0x0377
    8664:	88 23       	and	r24, r24
    8666:	09 f0       	breq	.+2      	; 0x866a <Clock_100msCallback+0x24>
    8668:	53 c0       	rjmp	.+166    	; 0x8710 <Clock_100msCallback+0xca>

static void Clock_DisplayClockTime(void)
{
 static uint8_t BlinkCount = 0;
 
 if(ClockStatus.SecondBlink)
    866a:	80 91 80 03 	lds	r24, 0x0380
    866e:	88 23       	and	r24, r24
    8670:	59 f0       	breq	.+22     	; 0x8688 <Clock_100msCallback+0x42>
 {
  if(BlinkCount < 5)
    8672:	80 91 f2 01 	lds	r24, 0x01F2
    8676:	85 30       	cpi	r24, 0x05	; 5
    8678:	38 f0       	brcs	.+14     	; 0x8688 <Clock_100msCallback+0x42>
   FND_Write(ClockStatus.Time.Second % 10, 0, 0);
   FND_Write(ClockStatus.Time.Second / 10 % 10, 1, 0);
  }
  else
  {
   FND_Write(10, 0, 0);
    867a:	8a e0       	ldi	r24, 0x0A	; 10
    867c:	60 e0       	ldi	r22, 0x00	; 0
    867e:	40 e0       	ldi	r20, 0x00	; 0
    8680:	0e 94 d3 36 	call	0x6da6	; 0x6da6 <FND_Write>
   FND_Write(10, 1, 0);
    8684:	8a e0       	ldi	r24, 0x0A	; 10
    8686:	12 c0       	rjmp	.+36     	; 0x86ac <Clock_100msCallback+0x66>
  }
 }
 else
 { 
  /*   */
  FND_Write(ClockStatus.Time.Second % 10, 0, 0);
    8688:	80 91 7a 03 	lds	r24, 0x037A
    868c:	6a e0       	ldi	r22, 0x0A	; 10
    868e:	0e 94 e7 43 	call	0x87ce	; 0x87ce <__udivmodqi4>
    8692:	89 2f       	mov	r24, r25
    8694:	60 e0       	ldi	r22, 0x00	; 0
    8696:	40 e0       	ldi	r20, 0x00	; 0
    8698:	0e 94 d3 36 	call	0x6da6	; 0x6da6 <FND_Write>
  FND_Write(ClockStatus.Time.Second / 10 % 10, 1, 0);
    869c:	80 91 7a 03 	lds	r24, 0x037A
    86a0:	6a e0       	ldi	r22, 0x0A	; 10
    86a2:	0e 94 e7 43 	call	0x87ce	; 0x87ce <__udivmodqi4>
    86a6:	0e 94 e7 43 	call	0x87ce	; 0x87ce <__udivmodqi4>
    86aa:	89 2f       	mov	r24, r25
    86ac:	61 e0       	ldi	r22, 0x01	; 1
    86ae:	40 e0       	ldi	r20, 0x00	; 0
    86b0:	0e 94 d3 36 	call	0x6da6	; 0x6da6 <FND_Write>
 }
 
 if(ClockStatus.MinuteBlink)
    86b4:	80 91 7f 03 	lds	r24, 0x037F
    86b8:	88 23       	and	r24, r24
    86ba:	59 f0       	breq	.+22     	; 0x86d2 <Clock_100msCallback+0x8c>
 {
  if(BlinkCount < 5)
    86bc:	80 91 f2 01 	lds	r24, 0x01F2
    86c0:	85 30       	cpi	r24, 0x05	; 5
    86c2:	38 f0       	brcs	.+14     	; 0x86d2 <Clock_100msCallback+0x8c>
   FND_Write(ClockStatus.Time.Minute % 10, 2, 1);
   FND_Write(ClockStatus.Time.Minute / 10 % 10, 3, 0);
  }
  else
  {
   FND_Write(10, 2, 1);
    86c4:	8a e0       	ldi	r24, 0x0A	; 10
    86c6:	62 e0       	ldi	r22, 0x02	; 2
    86c8:	41 e0       	ldi	r20, 0x01	; 1
    86ca:	0e 94 d3 36 	call	0x6da6	; 0x6da6 <FND_Write>
   FND_Write(10, 3, 0);
    86ce:	8a e0       	ldi	r24, 0x0A	; 10
    86d0:	12 c0       	rjmp	.+36     	; 0x86f6 <Clock_100msCallback+0xb0>
  }
 }
 else
 {
  /*   */
  FND_Write(ClockStatus.Time.Minute % 10, 2, 1);
    86d2:	80 91 79 03 	lds	r24, 0x0379
    86d6:	6a e0       	ldi	r22, 0x0A	; 10
    86d8:	0e 94 e7 43 	call	0x87ce	; 0x87ce <__udivmodqi4>
    86dc:	89 2f       	mov	r24, r25
    86de:	62 e0       	ldi	r22, 0x02	; 2
    86e0:	41 e0       	ldi	r20, 0x01	; 1
    86e2:	0e 94 d3 36 	call	0x6da6	; 0x6da6 <FND_Write>
  FND_Write(ClockStatus.Time.Minute / 10 % 10, 3, 0); 
    86e6:	80 91 79 03 	lds	r24, 0x0379
    86ea:	6a e0       	ldi	r22, 0x0A	; 10
    86ec:	0e 94 e7 43 	call	0x87ce	; 0x87ce <__udivmodqi4>
    86f0:	0e 94 e7 43 	call	0x87ce	; 0x87ce <__udivmodqi4>
    86f4:	89 2f       	mov	r24, r25
    86f6:	63 e0       	ldi	r22, 0x03	; 3
    86f8:	40 e0       	ldi	r20, 0x00	; 0
    86fa:	0e 94 d3 36 	call	0x6da6	; 0x6da6 <FND_Write>
 }


 BlinkCount++;
 BlinkCount %= 10;
    86fe:	80 91 f2 01 	lds	r24, 0x01F2
    8702:	8f 5f       	subi	r24, 0xFF	; 255
    8704:	6a e0       	ldi	r22, 0x0A	; 10
    8706:	0e 94 e7 43 	call	0x87ce	; 0x87ce <__udivmodqi4>
    870a:	90 93 f2 01 	sts	0x01F2, r25
    870e:	08 95       	ret
}


static void Clock_DisplayStopwatchTime(void)
{
 FND_Write(ClockStatus.StopwatchTime % 10, 0, 0);
    8710:	80 91 7b 03 	lds	r24, 0x037B
    8714:	90 91 7c 03 	lds	r25, 0x037C
    8718:	6a e0       	ldi	r22, 0x0A	; 10
    871a:	70 e0       	ldi	r23, 0x00	; 0
    871c:	0e 94 f3 43 	call	0x87e6	; 0x87e6 <__udivmodhi4>
    8720:	60 e0       	ldi	r22, 0x00	; 0
    8722:	40 e0       	ldi	r20, 0x00	; 0
    8724:	0e 94 d3 36 	call	0x6da6	; 0x6da6 <FND_Write>
 FND_Write(ClockStatus.StopwatchTime / 10 % 10, 1, 1);
    8728:	80 91 7b 03 	lds	r24, 0x037B
    872c:	90 91 7c 03 	lds	r25, 0x037C
    8730:	6a e0       	ldi	r22, 0x0A	; 10
    8732:	70 e0       	ldi	r23, 0x00	; 0
    8734:	0e 94 f3 43 	call	0x87e6	; 0x87e6 <__udivmodhi4>
    8738:	cb 01       	movw	r24, r22
    873a:	6a e0       	ldi	r22, 0x0A	; 10
    873c:	70 e0       	ldi	r23, 0x00	; 0
    873e:	0e 94 f3 43 	call	0x87e6	; 0x87e6 <__udivmodhi4>
    8742:	61 e0       	ldi	r22, 0x01	; 1
    8744:	41 e0       	ldi	r20, 0x01	; 1
    8746:	0e 94 d3 36 	call	0x6da6	; 0x6da6 <FND_Write>
 FND_Write(ClockStatus.StopwatchTime / 100 % 6, 2, 0);
    874a:	80 91 7b 03 	lds	r24, 0x037B
    874e:	90 91 7c 03 	lds	r25, 0x037C
    8752:	64 e6       	ldi	r22, 0x64	; 100
    8754:	70 e0       	ldi	r23, 0x00	; 0
    8756:	0e 94 f3 43 	call	0x87e6	; 0x87e6 <__udivmodhi4>
    875a:	cb 01       	movw	r24, r22
    875c:	66 e0       	ldi	r22, 0x06	; 6
    875e:	70 e0       	ldi	r23, 0x00	; 0
    8760:	0e 94 f3 43 	call	0x87e6	; 0x87e6 <__udivmodhi4>
    8764:	62 e0       	ldi	r22, 0x02	; 2
    8766:	40 e0       	ldi	r20, 0x00	; 0
    8768:	0e 94 d3 36 	call	0x6da6	; 0x6da6 <FND_Write>
 FND_Write(ClockStatus.StopwatchTime / 600 % 10, 3, 1);
    876c:	80 91 7b 03 	lds	r24, 0x037B
    8770:	90 91 7c 03 	lds	r25, 0x037C
    8774:	68 e5       	ldi	r22, 0x58	; 88
    8776:	72 e0       	ldi	r23, 0x02	; 2
    8778:	0e 94 f3 43 	call	0x87e6	; 0x87e6 <__udivmodhi4>
    877c:	cb 01       	movw	r24, r22
    877e:	6a e0       	ldi	r22, 0x0A	; 10
    8780:	70 e0       	ldi	r23, 0x00	; 0
    8782:	0e 94 f3 43 	call	0x87e6	; 0x87e6 <__udivmodhi4>
    8786:	63 e0       	ldi	r22, 0x03	; 3
    8788:	41 e0       	ldi	r20, 0x01	; 1
    878a:	0e 94 d3 36 	call	0x6da6	; 0x6da6 <FND_Write>
    878e:	08 95       	ret

00008790 <__mulsi3>:
    8790:	62 9f       	mul	r22, r18
    8792:	d0 01       	movw	r26, r0
    8794:	73 9f       	mul	r23, r19
    8796:	f0 01       	movw	r30, r0
    8798:	82 9f       	mul	r24, r18
    879a:	e0 0d       	add	r30, r0
    879c:	f1 1d       	adc	r31, r1
    879e:	64 9f       	mul	r22, r20
    87a0:	e0 0d       	add	r30, r0
    87a2:	f1 1d       	adc	r31, r1
    87a4:	92 9f       	mul	r25, r18
    87a6:	f0 0d       	add	r31, r0
    87a8:	83 9f       	mul	r24, r19
    87aa:	f0 0d       	add	r31, r0
    87ac:	74 9f       	mul	r23, r20
    87ae:	f0 0d       	add	r31, r0
    87b0:	65 9f       	mul	r22, r21
    87b2:	f0 0d       	add	r31, r0
    87b4:	99 27       	eor	r25, r25
    87b6:	72 9f       	mul	r23, r18
    87b8:	b0 0d       	add	r27, r0
    87ba:	e1 1d       	adc	r30, r1
    87bc:	f9 1f       	adc	r31, r25
    87be:	63 9f       	mul	r22, r19
    87c0:	b0 0d       	add	r27, r0
    87c2:	e1 1d       	adc	r30, r1
    87c4:	f9 1f       	adc	r31, r25
    87c6:	bd 01       	movw	r22, r26
    87c8:	cf 01       	movw	r24, r30
    87ca:	11 24       	eor	r1, r1
    87cc:	08 95       	ret

000087ce <__udivmodqi4>:
    87ce:	99 1b       	sub	r25, r25
    87d0:	79 e0       	ldi	r23, 0x09	; 9
    87d2:	04 c0       	rjmp	.+8      	; 0x87dc <__udivmodqi4_ep>

000087d4 <__udivmodqi4_loop>:
    87d4:	99 1f       	adc	r25, r25
    87d6:	96 17       	cp	r25, r22
    87d8:	08 f0       	brcs	.+2      	; 0x87dc <__udivmodqi4_ep>
    87da:	96 1b       	sub	r25, r22

000087dc <__udivmodqi4_ep>:
    87dc:	88 1f       	adc	r24, r24
    87de:	7a 95       	dec	r23
    87e0:	c9 f7       	brne	.-14     	; 0x87d4 <__udivmodqi4_loop>
    87e2:	80 95       	com	r24
    87e4:	08 95       	ret

000087e6 <__udivmodhi4>:
    87e6:	aa 1b       	sub	r26, r26
    87e8:	bb 1b       	sub	r27, r27
    87ea:	51 e1       	ldi	r21, 0x11	; 17
    87ec:	07 c0       	rjmp	.+14     	; 0x87fc <__udivmodhi4_ep>

000087ee <__udivmodhi4_loop>:
    87ee:	aa 1f       	adc	r26, r26
    87f0:	bb 1f       	adc	r27, r27
    87f2:	a6 17       	cp	r26, r22
    87f4:	b7 07       	cpc	r27, r23
    87f6:	10 f0       	brcs	.+4      	; 0x87fc <__udivmodhi4_ep>
    87f8:	a6 1b       	sub	r26, r22
    87fa:	b7 0b       	sbc	r27, r23

000087fc <__udivmodhi4_ep>:
    87fc:	88 1f       	adc	r24, r24
    87fe:	99 1f       	adc	r25, r25
    8800:	5a 95       	dec	r21
    8802:	a9 f7       	brne	.-22     	; 0x87ee <__udivmodhi4_loop>
    8804:	80 95       	com	r24
    8806:	90 95       	com	r25
    8808:	bc 01       	movw	r22, r24
    880a:	cd 01       	movw	r24, r26
    880c:	08 95       	ret

0000880e <_exit>:
    880e:	f8 94       	cli

00008810 <__stop_program>:
    8810:	ff cf       	rjmp	.-2      	; 0x8810 <__stop_program>
